LX51 LINKER/LOCATER V4.66.100.0                                                         07/26/2023  22:33:38  PAGE 1


LX51 LINKER/LOCATER V4.66.100.0, INVOKED BY:
D:\00.SOFTWARE\03.KEILCC51\C51\BIN\LX51.EXE .\Output\htim.obj, .\Output\main.obj, .\Output\vcnl36821.obj, .\Output\commo
>> n.obj, .\Output\delay.obj, .\Output\sys.obj, .\Output\uart.obj, .\Output\STARTUP.obj TO .\Output\I2C_EEPROM_Master_Po
>> lling PRINT (.\lst\I2C_EEPROM_Master_Polling.map) DISABLEWARNING (16) REMOVEUNUSED


CPU MODE:     8051 MODE
MEMORY MODEL: LARGE


INPUT MODULES INCLUDED:
  .\Output\htim.obj (HTIM)
         COMMENT TYPE 0: C51 V9.60.7.0
  .\Output\main.obj (MAIN)
         COMMENT TYPE 0: C51 V9.60.7.0
  .\Output\vcnl36821.obj (VCNL36821)
         COMMENT TYPE 0: C51 V9.60.7.0
  .\Output\common.obj (COMMON)
         COMMENT TYPE 0: C51 V9.60.7.0
  .\Output\delay.obj (DELAY)
         COMMENT TYPE 0: C51 V9.60.7.0
  .\Output\sys.obj (SYS)
         COMMENT TYPE 0: C51 V9.60.7.0
  .\Output\uart.obj (UART)
         COMMENT TYPE 0: C51 V9.60.7.0
  .\Output\STARTUP.obj (?C_STARTUP)
         COMMENT TYPE 1: A51 / ASM51 Assembler
  D:\00.SOFTWARE\03.KEILCC51\C51\LIB\C51L.LIB (?C_INIT)
         COMMENT TYPE 1: A51 / ASM51 Assembler
  D:\00.SOFTWARE\03.KEILCC51\C51\LIB\C51L.LIB (?C?CLDOPTR)
         COMMENT TYPE 1: A51 / ASM51 Assembler
  D:\00.SOFTWARE\03.KEILCC51\C51\LIB\C51L.LIB (?C?CSTOPTR)
         COMMENT TYPE 1: A51 / ASM51 Assembler
  D:\00.SOFTWARE\03.KEILCC51\C51\LIB\C51L.LIB (?C?UIDIV)
         COMMENT TYPE 1: A51 / ASM51 Assembler
  D:\00.SOFTWARE\03.KEILCC51\C51\LIB\C51L.LIB (?C?ILDPTR)
         COMMENT TYPE 1: A51 / ASM51 Assembler
  D:\00.SOFTWARE\03.KEILCC51\C51\LIB\C51L.LIB (?C?ISTPTR)
         COMMENT TYPE 1: A51 / ASM51 Assembler
  D:\00.SOFTWARE\03.KEILCC51\C51\LIB\C51L.LIB (?C?LMUL)
         COMMENT TYPE 1: A51 / ASM51 Assembler
  D:\00.SOFTWARE\03.KEILCC51\C51\LIB\C51L.LIB (?C?ULDIV)
         COMMENT TYPE 1: A51 / ASM51 Assembler
  D:\00.SOFTWARE\03.KEILCC51\C51\LIB\C51L.LIB (?C?ULCMP)
         COMMENT TYPE 1: A51 / ASM51 Assembler
  D:\00.SOFTWARE\03.KEILCC51\C51\LIB\C51L.LIB (?C?ULSHR)
         COMMENT TYPE 1: A51 / ASM51 Assembler
  D:\00.SOFTWARE\03.KEILCC51\C51\LIB\C51L.LIB (?C?LSTXDATA)
         COMMENT TYPE 1: A51 / ASM51 Assembler
  D:\00.SOFTWARE\03.KEILCC51\C51\LIB\C51L.LIB (?C?LSTKXDATA)
         COMMENT TYPE 1: A51 / ASM51 Assembler
  D:\00.SOFTWARE\03.KEILCC51\C51\LIB\C51L.LIB (?C?ICASE)
         COMMENT TYPE 1: A51 / ASM51 Assembler


ACTIVE MEMORY CLASSES OF MODULE:  .\Output\I2C_EEPROM_Master_Polling (HTIM)

BASE        START       END         USED      MEMORY CLASS
==========================================================
C:000000H   C:000000H   C:00FFFFH   000E53H   CODE
X:000000H   X:000000H   X:00FFFFH   00003CH   XDATA
I:000020H.0 I:000020H.0 I:00002FH.7 000000H.5 BIT
I:000000H   I:000000H   I:00007FH   00000FH   DATA
I:000000H   I:000000H   I:0000FFH   000001H   IDATA


LX51 LINKER/LOCATER V4.66.100.0                                                       07/26/2023  22:33:38  PAGE 2


MEMORY MAP OF MODULE:  .\Output\I2C_EEPROM_Master_Polling (HTIM)


START     STOP      LENGTH    ALIGN  RELOC    MEMORY CLASS   SEGMENT NAME
=========================================================================

* * * * * * * * * * *   D A T A   M E M O R Y   * * * * * * * * * * * * *
000000H   000007H   000008H   ---    AT..     DATA           "REG BANK 0"
000008H   00000BH   000004H   BYTE   UNIT     DATA           _DATA_GROUP_
00000CH   00000EH   000003H   BYTE   UNIT     DATA           ?DT?SYS
00000FH.0 00001FH.7 000011H.0 ---    ---      **GAP**
000020H.0 000020H.2 000000H.3 BIT    UNIT     BIT            ?BI?UART
000020H.3 000020H.3 000000H.1 BIT    UNIT     BIT            ?BI?VCNL36821
000020H.4 000020H.4 000000H.1 BIT    UNIT     BIT            ?BI?COMMON
000020H.5 000020H   000000H.3 ---    ---      **GAP**
000021H   000021H   000001H   BYTE   UNIT     IDATA          ?STACK

* * * * * * * * * * *   C O D E   M E M O R Y   * * * * * * * * * * * * *
000000H   000002H   000003H   ---    OFFS..   CODE           ?CO??C_STARTUP?0
000003H   000019H   000017H   BYTE   UNIT     CODE           ?PR?HAL_TIM_PAUSE?HTIM
00001AH   000022H   000009H   BYTE   UNIT     CODE           ?PR?CHECK_SYSTEM_MODE?MAIN
000023H   000025H   000003H   BYTE   OFFS..   CODE           ?UART?00023
000026H   000034H   00000FH   BYTE   UNIT     CODE           ?PR?HAL_GETTICK?HTIM
000035H   00003AH   000006H   ---    ---      **GAP**
00003BH   00003DH   000003H   BYTE   OFFS..   CODE           ?MAIN?0003B
00003EH   00004CH   00000FH   BYTE   UNIT     CODE           ?PR?LCD_INIT?MAIN
00004DH   000052H   000006H   ---    ---      **GAP**
000053H   000055H   000003H   BYTE   OFFS..   CODE           ?MAIN?00053
000056H   000076H   000021H   BYTE   UNIT     CODE           ?PR?PININTERRUPT_ISR?MAIN
000077H   00007AH   000004H   ---    ---      **GAP**
00007BH   00007DH   000003H   BYTE   OFFS..   CODE           ?UART?0007B
00007EH   000082H   000005H   ---    ---      **GAP**
000083H   000085H   000003H   BYTE   OFFS..   CODE           ?HTIM?00083
000086H   00031EH   000299H   BYTE   UNIT     CODE           ?C?LIB_CODE
00031FH   00044DH   00012FH   BYTE   UNIT     CODE           ?PR?BTN_PROCESS?MAIN
00044EH   00055DH   000110H   BYTE   UNIT     CODE           ?PR?_MODIFY_HIRC?SYS
00055EH   000662H   000105H   BYTE   UNIT     CODE           ?PR?_LCD_SHOW?MAIN
000663H   000727H   0000C5H   BYTE   UNIT     CODE           ?PR?_VCNL36821_READ_REGISTER?VCNL36821
000728H   0007DFH   0000B8H   BYTE   UNIT     CODE           ?PR?_TIMER3_INT_INITIAL?HTIM
0007E0H   00087AH   00009BH   BYTE   UNIT     CODE           ?PR?MAIN?MAIN
00087BH   000914H   00009AH   BYTE   UNIT     CODE           ?PR?PROCESS_VCNL36821S?MAIN
000915H   0009AEH   00009AH   BYTE   UNIT     CODE           ?C_C51STARTUP
0009AFH   000A29H   00007BH   BYTE   UNIT     CODE           ?PR?_VCNL36821_WRITE_REGISTER?VCNL36821
000A2AH   000AA3H   00007AH   BYTE   UNIT     CODE           ?PR?SYSTEM_SHUTDOWN?MAIN
000AA4H   000B17H   000074H   BYTE   UNIT     CODE           ?PR?_LCD_SEND_BYTES?MAIN
000B18H   000B7CH   000065H   BYTE   UNIT     CODE           ?PR?TIMER3_ISR?HTIM
000B7DH   000BD2H   000056H   BYTE   UNIT     CODE           ?PR?CHECK_NON_OBJ_DETECT_TIMOUT?MAIN
000BD3H   000C26H   000054H   BYTE   UNIT     CODE           ?PR?_READWORD?VCNL36821
000C27H   000C78H   000052H   BYTE   UNIT     CODE           ?C_INITSEG
000C79H   000CC9H   000051H   BYTE   UNIT     CODE           ?PR?VCNL_INITIALIZE?VCNL36821
000CCAH   000D0DH   000044H   BYTE   UNIT     CODE           ?PR?_HAL_DELAY?HTIM
000D0EH   000D44H   000037H   BYTE   UNIT     CODE           ?PR?INIT_I2C?VCNL36821
000D45H   000D79H   000035H   BYTE   UNIT     CODE           ?PR?WDT_ISR?MAIN
000D7AH   000D9FH   000026H   BYTE   UNIT     CODE           ?PR?SERIAL_ISR?UART
000DA0H   000DC5H   000026H   BYTE   UNIT     CODE           ?PR?SERIALPORT1_ISR?UART
000DC6H   000DDCH   000017H   BYTE   UNIT     CODE           ?PR?HAL_TIM_RUN?HTIM
000DDDH   000DF3H   000017H   BYTE   UNIT     CODE           ?PR?_LCD_DELAY?MAIN
000DF4H   000E0AH   000017H   BYTE   UNIT     CODE           ?PR?I2C_SI_CHECK?VCNL36821
000E0BH   000E20H   000016H   BYTE   UNIT     CODE           ?PR?VCNL36821_STOP?VCNL36821
000E21H   000E2EH   00000EH   BYTE   UNIT     CODE           ?PR?_WRITEWORD?VCNL36821
000E2FH   000E39H   00000BH   BYTE   UNIT     CODE           ?PR?BTN_TIME_2SEC_CALLBACK?MAIN
000E3AH   000E44H   00000BH   BYTE   UNIT     CODE           ?PR?BTN_TIME_3SEC_CALLBACK?MAIN
000E45H   000E4EH   00000AH   BYTE   UNIT     CODE           ?PR?BTN_TIME_CLICK_CALLBACK?MAIN
000E4FH   000E58H   00000AH   BYTE   UNIT     CODE           ?PR?BTN_TIME_2_5SEC_CALLBACK?MAIN
000E59H   000E60H   000008H   BYTE   UNIT     CODE           ?PR?RESET_COUNTER?MAIN
LX51 LINKER/LOCATER V4.66.100.0                                                       07/26/2023  22:33:38  PAGE 3


000E61H   000E67H   000007H   BYTE   UNIT     CODE           ?PR?GPIO_INIT?MAIN

* * * * * * * * * * *  X D A T A   M E M O R Y  * * * * * * * * * * * * *
000000H   000026H   000027H   BYTE   UNIT     XDATA          ?XD?MAIN
000027H   000035H   00000FH   BYTE   UNIT     XDATA          _XDATA_GROUP_
000036H   000039H   000004H   BYTE   UNIT     XDATA          ?XD?HTIM
00003AH   00003BH   000002H   BYTE   UNIT     XDATA          ?XD?UART

* * * * * * * * *   R E M O V E D     S E G M E N T S   * * * * * * * *
   *DEL*:           000197H   BYTE   UNIT     CODE           ?PR?DISABLE_WDT_RESET_CONFIG?MAIN
   *DEL*:           000054H   BYTE   UNIT     CODE           ?PR?_BITSUPDATE?VCNL36821
   *DEL*:           000007H   BYTE   UNIT     XDATA          ?XD?_BITSUPDATE?VCNL36821
   *DEL*:           00000EH   BYTE   UNIT     CODE           ?PR?_SET_PS_I_VCSEL?VCNL36821
   *DEL*:           000008H   BYTE   UNIT     CODE           ?PR?_READ_APROM_BYTE?COMMON
   *DEL*:           00000DH   BYTE   UNIT     CODE           ?PR?_SOFTWARE_RESET?COMMON
   *DEL*:           0000D5H   BYTE   UNIT     CODE           ?PR?_TIMER0_DELAY?DELAY
   *DEL*:           000009H   BYTE   UNIT     XDATA          ?XD?_TIMER0_DELAY?DELAY
   *DEL*:           0000D5H   BYTE   UNIT     CODE           ?PR?_TIMER1_DELAY?DELAY
   *DEL*:           000009H   BYTE   UNIT     XDATA          ?XD?_TIMER1_DELAY?DELAY
   *DEL*:           000156H   BYTE   UNIT     CODE           ?PR?_TIMER2_DELAY?DELAY
   *DEL*:           00000DH   BYTE   UNIT     XDATA          ?XD?_TIMER2_DELAY?DELAY
   *DEL*:           000185H   BYTE   UNIT     CODE           ?PR?_TIMER3_DELAY?DELAY
   *DEL*:           00000CH   BYTE   UNIT     XDATA          ?XD?_TIMER3_DELAY?DELAY
   *DEL*:           00001CH   BYTE   UNIT     CODE           ?PR?_TIMER_INTERRUPT_ENABLE?DELAY
   *DEL*:           000058H   BYTE   UNIT     CODE           ?PR?_FSYSSELECT?SYS
   *DEL*:           000033H   BYTE   UNIT     CODE           ?PR?_CLOCKENABLE?SYS
   *DEL*:           00002AH   BYTE   UNIT     CODE           ?PR?_CLOCKDISABLE?SYS
   *DEL*:           00007DH   BYTE   UNIT     CODE           ?PR?_CLOCKSWITCH?SYS
   *DEL*:           0001A9H   BYTE   UNIT     CODE           ?PR?_UART_OPEN?UART
   *DEL*:           000009H   BYTE   UNIT     XDATA          ?XD?_UART_OPEN?UART
   *DEL*:           000023H   BYTE   UNIT     CODE           ?PR?_UART_SEND_DATA?UART
   *DEL*:           000035H   BYTE   UNIT     CODE           ?PR?ENABLE_UART0_VCOM_PRINTF_24M_115200?UART



OVERLAY MAP OF MODULE:   .\Output\I2C_EEPROM_Master_Polling (HTIM)


FUNCTION/MODULE                               DATA_GROUP   XDATA_GROUP
--> CALLED FUNCTION/MODULE                    START  STOP  START  STOP
======================================================================
TIMER3_ISR/HTIM                               ----- -----  ----- -----

*** NEW ROOT ********************************

PININTERRUPT_ISR/MAIN                         ----- -----  ----- -----

*** NEW ROOT ********************************

WDT_ISR/MAIN                                  ----- -----  ----- -----

*** NEW ROOT ********************************

SERIAL_ISR/UART                               ----- -----  ----- -----

*** NEW ROOT ********************************

SERIALPORT1_ISR/UART                          ----- -----  ----- -----

*** NEW ROOT ********************************

?C_C51STARTUP                                 ----- -----  ----- -----
  +--> MAIN/MAIN
  +--> ?C_INITSEG

LX51 LINKER/LOCATER V4.66.100.0                                                       07/26/2023  22:33:38  PAGE 4


MAIN/MAIN                                     ----- -----  0027H 002CH
  +--> _MODIFY_HIRC/SYS
  +--> CHECK_SYSTEM_MODE/MAIN
  +--> INIT_I2C/VCNL36821
  +--> LCD_INIT/MAIN
  +--> _TIMER3_INT_INITIAL/HTIM
  +--> VCNL_INITIALIZE/VCNL36821
  +--> VCNL36821_STOP/VCNL36821
  +--> GPIO_INIT/MAIN
  +--> BTN_PROCESS/MAIN
  +--> PROCESS_VCNL36821S/MAIN
  +--> _LCD_SHOW/MAIN
  +--> CHECK_NON_OBJ_DETECT_TIMOUT/MAIN

_MODIFY_HIRC/SYS                              0008H 000BH  ----- -----

CHECK_SYSTEM_MODE/MAIN                        ----- -----  ----- -----

INIT_I2C/VCNL36821                            ----- -----  ----- -----

LCD_INIT/MAIN                                 ----- -----  ----- -----

_TIMER3_INT_INITIAL/HTIM                      ----- -----  002DH 002EH

VCNL_INITIALIZE/VCNL36821                     ----- -----  ----- -----
  +--> _VCNL36821_WRITE_REGISTER/VCNL36821

_VCNL36821_WRITE_REGISTER/VCNL36821           ----- -----  ----- -----
  +--> I2C_SI_CHECK/VCNL36821

I2C_SI_CHECK/VCNL36821                        ----- -----  ----- -----

VCNL36821_STOP/VCNL36821                      ----- -----  ----- -----
  +--> _WRITEWORD/VCNL36821

_WRITEWORD/VCNL36821                          ----- -----  ----- -----
  +--> _VCNL36821_WRITE_REGISTER/VCNL36821

GPIO_INIT/MAIN                                ----- -----  ----- -----

BTN_PROCESS/MAIN                              ----- -----  ----- -----
  +--> HAL_GETTICK/HTIM
  +--> BTN_TIME_CLICK_CALLBACK/MAIN
  +--> BTN_TIME_2SEC_CALLBACK/MAIN
  +--> BTN_TIME_2_5SEC_CALLBACK/MAIN
  +--> BTN_TIME_3SEC_CALLBACK/MAIN

HAL_GETTICK/HTIM                              ----- -----  ----- -----

BTN_TIME_CLICK_CALLBACK/MAIN                  ----- -----  ----- -----
  +--> RESET_COUNTER/MAIN

RESET_COUNTER/MAIN                            ----- -----  ----- -----

BTN_TIME_2SEC_CALLBACK/MAIN                   ----- -----  ----- -----
  +--> RESET_COUNTER/MAIN

BTN_TIME_2_5SEC_CALLBACK/MAIN                 ----- -----  ----- -----
  +--> SYSTEM_SHUTDOWN/MAIN

SYSTEM_SHUTDOWN/MAIN                          ----- -----  ----- -----
  +--> VCNL36821_STOP/VCNL36821
  +--> HAL_TIM_PAUSE/HTIM
  +--> HAL_TIM_RUN/HTIM
  +--> _HAL_DELAY/HTIM
LX51 LINKER/LOCATER V4.66.100.0                                                       07/26/2023  22:33:38  PAGE 5



HAL_TIM_PAUSE/HTIM                            ----- -----  ----- -----

HAL_TIM_RUN/HTIM                              ----- -----  ----- -----

_HAL_DELAY/HTIM                               ----- -----  002DH 0030H

BTN_TIME_3SEC_CALLBACK/MAIN                   ----- -----  ----- -----
  +--> SYSTEM_SHUTDOWN/MAIN

PROCESS_VCNL36821S/MAIN                       ----- -----  ----- -----
  +--> HAL_GETTICK/HTIM
  +--> _READWORD/VCNL36821

_READWORD/VCNL36821                           ----- -----  002DH 0032H
  +--> _VCNL36821_READ_REGISTER/VCNL36821

_VCNL36821_READ_REGISTER/VCNL36821            ----- -----  0033H 0035H
  +--> I2C_SI_CHECK/VCNL36821

_LCD_SHOW/MAIN                                ----- -----  002DH 002FH
  +--> _LCD_SEND_BYTES/MAIN
  +--> _LCD_DELAY/MAIN

_LCD_SEND_BYTES/MAIN                          ----- -----  0030H 0034H
  +--> _LCD_DELAY/MAIN

_LCD_DELAY/MAIN                               ----- -----  ----- -----

CHECK_NON_OBJ_DETECT_TIMOUT/MAIN              ----- -----  ----- -----
  +--> HAL_GETTICK/HTIM
  +--> SYSTEM_SHUTDOWN/MAIN

?C_INITSEG                                    ----- -----  ----- -----



PUBLIC SYMBOLS OF MODULE:  .\Output\I2C_EEPROM_Master_Polling (HTIM)


      VALUE       CLASS    TYPE      PUBLIC SYMBOL NAME
      =================================================
*DEL*:00000000H   XDATA    BYTE      ?_Timer0_Delay?BYTE
*DEL*:00000000H   XDATA    BYTE      ?_Timer1_Delay?BYTE
*DEL*:00000000H   XDATA    BYTE      ?_Timer2_Delay?BYTE
*DEL*:00000000H   XDATA    BYTE      ?_Timer3_Delay?BYTE
*DEL*:00000000H   XDATA    BYTE      ?_UART_Open?BYTE
      01000086H   CODE     ---       ?C?CLDOPTR
      00000000H   NUMBER   ---       ?C?CODESEG
      010000B3H   CODE     ---       ?C?CSTOPTR
      010002F2H   CODE     ---       ?C?ICASE
      0100012AH   CODE     ---       ?C?ILDPTR
      01000155H   CODE     ---       ?C?ISTPTR
      01000174H   CODE     ---       ?C?LMUL
      010002C1H   CODE     ---       ?C?LSTKXDATA
      010002B5H   CODE     ---       ?C?LSTXDATA
      010000D5H   CODE     ---       ?C?UIDIV
      01000291H   CODE     ---       ?C?ULCMP
      010001FFH   CODE     ---       ?C?ULDIV
      010002A2H   CODE     ---       ?C?ULSHR
      00000000H   NUMBER   ---       ?C?XDATASEG
      0100096AH   CODE     ---       ?C_START
      01000000H   CODE     ---       ?C_STARTUP
*DEL*:00000000H   CODE     ---       _bitsUpdate
*DEL*:00000000H   CODE     ---       _ClockDisable
LX51 LINKER/LOCATER V4.66.100.0                                                       07/26/2023  22:33:38  PAGE 6


*DEL*:00000000H   CODE     ---       _ClockEnable
*DEL*:00000000H   CODE     ---       _ClockSwitch
*DEL*:00000000H   CODE     ---       _FsysSelect
      01000CCAH   CODE     ---       _HAL_Delay
      01000DDDH   CODE     ---       _LCD_Delay
      01000AA4H   CODE     ---       _LCD_send_bytes
      0100055EH   CODE     ---       _LCD_show
      0100044EH   CODE     ---       _MODIFY_HIRC
*DEL*:00000000H   CODE     ---       _Read_APROM_BYTE
      01000BD3H   CODE     ---       _readWord
*DEL*:00000000H   CODE     ---       _set_PS_I_VCSEL
*DEL*:00000000H   CODE     ---       _Software_Reset
*DEL*:00000000H   CODE     ---       _Timer0_Delay
*DEL*:00000000H   CODE     ---       _Timer1_Delay
*DEL*:00000000H   CODE     ---       _Timer2_Delay
*DEL*:00000000H   CODE     ---       _Timer3_Delay
      01000728H   CODE     ---       _Timer3_INT_Initial
*DEL*:00000000H   CODE     ---       _Timer_Interrupt_Enable
*DEL*:00000000H   CODE     ---       _UART_Open
*DEL*:00000000H   CODE     ---       _UART_Send_Data
      01000663H   CODE     ---       _VCNL36821_Read_register
      010009AFH   CODE     ---       _VCNL36821_Write_register
      01000E21H   CODE     ---       _writeWord
*SFR* 000000C0H.2 DATA     BIT       AA
*SFR* 000000D0H.6 DATA     BIT       AC
*SFR* 000000E0H   DATA     BYTE      ACC
*SFR* 000000E8H   DATA     BYTE      ADCCON0
*SFR* 000000E1H   DATA     BYTE      ADCCON1
*SFR* 000000E2H   DATA     BYTE      ADCCON2
*SFR* 000000E3H   DATA     BYTE      ADCDLY
*SFR* 000000E8H.7 DATA     BIT       ADCF
*SFR* 000000E8H.0 DATA     BIT       ADCHS0
*SFR* 000000E8H.1 DATA     BIT       ADCHS1
*SFR* 000000E8H.2 DATA     BIT       ADCHS2
*SFR* 000000E8H.3 DATA     BIT       ADCHS3
*SFR* 000000CFH   DATA     BYTE      ADCMPH
*SFR* 000000CEH   DATA     BYTE      ADCMPL
*SFR* 000000C3H   DATA     BYTE      ADCRH
*SFR* 000000C2H   DATA     BYTE      ADCRL
*SFR* 000000E8H.6 DATA     BIT       ADCS
*SFR* 000000F6H   DATA     BYTE      AINDIDS
*SFR* 000000A2H   DATA     BYTE      AUXR1
*SFR* 000000F0H   DATA     BYTE      B
      00000020H.4 BIT      BIT       BIT_TMP
*SFR* 000000A3H   DATA     BYTE      BODCON0
*SFR* 000000ABH   DATA     BYTE      BODCON1
      0100031FH   CODE     ---       BTN_process
      01000E4FH   CODE     ---       btn_time_2_5sec_callback
      01000E2FH   CODE     ---       btn_time_2sec_callback
      01000E3AH   CODE     ---       btn_time_3sec_callback
      01000E45H   CODE     ---       btn_time_click_callback
      0000000CH   DATA     BYTE      BYTE_TMP
*SFR* 000000E5H   DATA     BYTE      C0H
*SFR* 000000E4H   DATA     BYTE      C0L
*SFR* 000000E7H   DATA     BYTE      C1H
*SFR* 000000E6H   DATA     BYTE      C1L
*SFR* 000000EEH   DATA     BYTE      C2H
*SFR* 000000EDH   DATA     BYTE      C2L
*SFR* 00000092H   DATA     BYTE      CAPCON0
*SFR* 00000093H   DATA     BYTE      CAPCON1
*SFR* 00000094H   DATA     BYTE      CAPCON2
*SFR* 000000F1H   DATA     BYTE      CAPCON3
*SFR* 000000F2H   DATA     BYTE      CAPCON4
      01000B7DH   CODE     ---       check_non_obj_detect_timout
      0100001AH   CODE     ---       Check_system_mode
LX51 LINKER/LOCATER V4.66.100.0                                                       07/26/2023  22:33:38  PAGE 7


*SFR* 0000009FH   DATA     BYTE      CHPCON
*SFR* 0000008EH   DATA     BYTE      CKCON
*SFR* 00000095H   DATA     BYTE      CKDIV
*SFR* 00000097H   DATA     BYTE      CKEN
*SFR* 00000096H   DATA     BYTE      CKSWT
*SFR* 000000D8H.4 DATA     BIT       CLRPWM
*SFR* 000000C8H.0 DATA     BIT       CM_RL2
*SFR* 000000D0H.7 DATA     BIT       CY
*DEL*:00000000H   CODE     ---       Disable_WDT_Reset_Config
*SFR* 00000083H   DATA     BYTE      DPH
*SFR* 00000082H   DATA     BYTE      DPL
*SFR* 000000A8H.7 DATA     BIT       EA
*SFR* 000000A8H.6 DATA     BIT       EADC
*SFR* 000000A8H.5 DATA     BIT       EBOD
*SFR* 0000009BH   DATA     BYTE      EIE
*SFR* 0000009CH   DATA     BYTE      EIE1
*SFR* 000000EFH   DATA     BYTE      EIP
*SFR* 000000FEH   DATA     BYTE      EIP1
*SFR* 000000F7H   DATA     BYTE      EIPH
*SFR* 000000FFH   DATA     BYTE      EIPH1
*DEL*:00000000H   CODE     ---       Enable_UART0_VCOM_printf_24M_115200
*SFR* 000000A8H.4 DATA     BIT       ES
*SFR* 000000A8H.1 DATA     BIT       ET0
*SFR* 000000A8H.3 DATA     BIT       ET1
*SFR* 000000E8H.4 DATA     BIT       ETGSEL0
*SFR* 000000E8H.5 DATA     BIT       ETGSEL1
*SFR* 000000A8H.0 DATA     BIT       EX0
*SFR* 000000A8H.2 DATA     BIT       EX1
*SFR* 000000D0H.5 DATA     BIT       F0
*SFR* 000000D7H   DATA     BYTE      FBD
*SFR* 00000098H.7 DATA     BIT       FE
*SFR* 000000F8H.7 DATA     BIT       FE_1
      01000E61H   CODE     ---       GPIO_Init
      01000026H   CODE     ---       HAL_GetTick
      01000003H   CODE     ---       HAL_TIM_Pause
      01000DC6H   CODE     ---       HAL_TIM_run
*SFR* 000000C1H   DATA     BYTE      I2ADDR
      00000020H.3 BIT      BIT       I2C_Reset_Flag
      01000DF4H   CODE     ---       I2C_SI_Check
*SFR* 000000C0H.6 DATA     BIT       I2CEN
*SFR* 000000BEH   DATA     BYTE      I2CLK
*SFR* 000000C0H   DATA     BYTE      I2CON
*SFR* 000000C0H.0 DATA     BIT       I2CPX
*SFR* 000000BCH   DATA     BYTE      I2DAT
*SFR* 000000BDH   DATA     BYTE      I2STAT
*SFR* 000000BFH   DATA     BYTE      I2TOC
*SFR* 000000A7H   DATA     BYTE      IAPAH
*SFR* 000000A6H   DATA     BYTE      IAPAL
*SFR* 000000AFH   DATA     BYTE      IAPCN
*SFR* 000000AEH   DATA     BYTE      IAPFD
*SFR* 000000A4H   DATA     BYTE      IAPTRG
*SFR* 000000A5H   DATA     BYTE      IAPUEN
*SFR* 000000A8H   DATA     BYTE      IE
*SFR* 00000088H.1 DATA     BIT       IE0
*SFR* 00000088H.3 DATA     BIT       IE1
      01000D0EH   CODE     ---       Init_I2C
*SFR* 000000B8H   DATA     BYTE      IP
*SFR* 000000B7H   DATA     BYTE      IPH
*SFR* 00000088H.0 DATA     BIT       IT0
*SFR* 00000088H.2 DATA     BIT       IT1
      02000017H   XDATA    ---       LCD_CODE
      0100003EH   CODE     ---       LCD_INIT
*SFR* 000000D8H.6 DATA     BIT       LOAD
      010007E0H   CODE     ---       main
*SFR* 00000080H.1 DATA     BIT       MISO
LX51 LINKER/LOCATER V4.66.100.0                                                       07/26/2023  22:33:38  PAGE 8


*SFR* 00000080H.0 DATA     BIT       MOSI
      02000015H   XDATA    WORD      obj_count
*SFR* 000000D0H.2 DATA     BIT       OV
*SFR* 000000D0H.0 DATA     BIT       P
*SFR* 00000080H   DATA     BYTE      P0
*SFR* 00000080H.0 DATA     BIT       P00
*SFR* 00000080H.1 DATA     BIT       P01
*SFR* 00000080H.2 DATA     BIT       P02
*SFR* 00000080H.3 DATA     BIT       P03
*SFR* 00000080H.4 DATA     BIT       P04
*SFR* 00000080H.5 DATA     BIT       P05
*SFR* 00000080H.6 DATA     BIT       P06
*SFR* 00000080H.7 DATA     BIT       P07
*SFR* 000000B1H   DATA     BYTE      P0M1
*SFR* 000000B2H   DATA     BYTE      P0M2
*SFR* 000000B1H   DATA     BYTE      P0S
*SFR* 000000B2H   DATA     BYTE      P0SR
*SFR* 00000090H   DATA     BYTE      P1
*SFR* 00000090H.0 DATA     BIT       P10
*SFR* 00000090H.1 DATA     BIT       P11
*SFR* 00000090H.2 DATA     BIT       P12
*SFR* 00000090H.3 DATA     BIT       P13
*SFR* 00000090H.4 DATA     BIT       P14
*SFR* 00000090H.5 DATA     BIT       P15
*SFR* 00000090H.6 DATA     BIT       P16
*SFR* 00000090H.7 DATA     BIT       P17
*SFR* 000000B3H   DATA     BYTE      P1M1
*SFR* 000000B4H   DATA     BYTE      P1M2
*SFR* 000000B3H   DATA     BYTE      P1S
*SFR* 000000B4H   DATA     BYTE      P1SR
*SFR* 000000A0H   DATA     BYTE      P2
*SFR* 000000A0H.0 DATA     BIT       P20
*SFR* 000000B5H   DATA     BYTE      P2S
*SFR* 000000B0H   DATA     BYTE      P3
*SFR* 000000B0H.0 DATA     BIT       P30
*SFR* 000000ACH   DATA     BYTE      P3M1
*SFR* 000000ADH   DATA     BYTE      P3M2
*SFR* 000000ACH   DATA     BYTE      P3S
*SFR* 000000ADH   DATA     BYTE      P3SR
*SFR* 000000B8H.6 DATA     BIT       PADC
*SFR* 000000B8H.5 DATA     BIT       PBOD
*SFR* 00000087H   DATA     BYTE      PCON
*SFR* 000000FAH   DATA     BYTE      PDTCNT
*SFR* 000000F9H   DATA     BYTE      PDTEN
*SFR* 000000E9H   DATA     BYTE      PICON
*SFR* 000000ECH   DATA     BYTE      PIF
*SFR* 000000EAH   DATA     BYTE      PINEN
      01000056H   CODE     ---       PinInterrupt_ISR
*SFR* 000000DEH   DATA     BYTE      PIOCON0
*SFR* 000000C6H   DATA     BYTE      PIOCON1
*SFR* 000000EBH   DATA     BYTE      PIPEN
*SFR* 000000FCH   DATA     BYTE      PMD
*SFR* 000000FBH   DATA     BYTE      PMEN
*SFR* 000000D6H   DATA     BYTE      PNP
      00000020H.0 BIT      BIT       PRINTFG
      0100087BH   CODE     ---       Process_VCNL36821S
*SFR* 000000B8H.4 DATA     BIT       PS
*SFR* 000000D0H   DATA     BYTE      PSW
*SFR* 000000B8H.1 DATA     BIT       PT0
*SFR* 000000B8H.3 DATA     BIT       PT1
*SFR* 000000D2H   DATA     BYTE      PWM0H
*SFR* 000000DAH   DATA     BYTE      PWM0L
*SFR* 000000D3H   DATA     BYTE      PWM1H
*SFR* 000000DBH   DATA     BYTE      PWM1L
*SFR* 000000D4H   DATA     BYTE      PWM2H
LX51 LINKER/LOCATER V4.66.100.0                                                       07/26/2023  22:33:38  PAGE 9


*SFR* 000000DCH   DATA     BYTE      PWM2L
*SFR* 000000D5H   DATA     BYTE      PWM3H
*SFR* 000000DDH   DATA     BYTE      PWM3L
*SFR* 000000C4H   DATA     BYTE      PWM4H
*SFR* 000000CCH   DATA     BYTE      PWM4L
*SFR* 000000C5H   DATA     BYTE      PWM5H
*SFR* 000000CDH   DATA     BYTE      PWM5L
*SFR* 000000D8H   DATA     BYTE      PWMCON0
*SFR* 000000DFH   DATA     BYTE      PWMCON1
*SFR* 000000D8H.5 DATA     BIT       PWMF
*SFR* 000000B7H   DATA     BYTE      PWMINTC
*SFR* 000000D1H   DATA     BYTE      PWMPH
*SFR* 000000D9H   DATA     BYTE      PWMPL
*SFR* 000000D8H.7 DATA     BIT       PWMRUN
*SFR* 000000B8H.0 DATA     BIT       PX0
*SFR* 000000B8H.2 DATA     BIT       PX1
*SFR* 00000098H.2 DATA     BIT       RB8
*SFR* 000000F8H.2 DATA     BIT       RB8_1
*SFR* 000000CBH   DATA     BYTE      RCMP2H
*SFR* 000000CAH   DATA     BYTE      RCMP2L
*SFR* 00000084H   DATA     BYTE      RCTRIM0
*SFR* 00000085H   DATA     BYTE      RCTRIM1
*SFR* 00000098H.4 DATA     BIT       REN
*SFR* 000000F8H.4 DATA     BIT       REN_1
      01000E59H   CODE     ---       reset_counter
*SFR* 000000C6H   DATA     BYTE      RH3
*SFR* 00000098H.0 DATA     BIT       RI
*SFR* 000000F8H.0 DATA     BIT       RI_1
*SFR* 000000C5H   DATA     BYTE      RL3
*SFR* 000000D0H.3 DATA     BIT       RS0
*SFR* 000000D0H.4 DATA     BIT       RS1
*SFR* 00000086H   DATA     BYTE      RWK
*SFR* 00000080H.7 DATA     BIT       RXD
*SFR* 00000080H.2 DATA     BIT       RXD_1
*SFR* 000000A9H   DATA     BYTE      SADDR
*SFR* 000000BBH   DATA     BYTE      SADDR_1
*SFR* 000000B9H   DATA     BYTE      SADEN
*SFR* 000000BAH   DATA     BYTE      SADEN_1
*SFR* 00000099H   DATA     BYTE      SBUF
*SFR* 0000009AH   DATA     BYTE      SBUF_1
*SFR* 00000090H.3 DATA     BIT       SCL
*SFR* 00000098H   DATA     BYTE      SCON
*SFR* 000000F8H   DATA     BYTE      SCON_1
*SFR* 00000090H.4 DATA     BIT       SDA
      01000D7AH   CODE     ---       Serial_ISR
      01000DA0H   CODE     ---       SerialPort1_ISR
*SFR* 00000091H   DATA     BYTE      SFRS
      0000000DH   DATA     BYTE      SFRS_TMP
*SFR* 000000C0H.3 DATA     BIT       SI
*SFR* 00000098H.7 DATA     BIT       SM0
*SFR* 000000F8H.7 DATA     BIT       SM0_1
*SFR* 00000098H.6 DATA     BIT       SM1
*SFR* 000000F8H.6 DATA     BIT       SM1_1
*SFR* 00000098H.5 DATA     BIT       SM2
*SFR* 000000F8H.5 DATA     BIT       SM2_1
*SFR* 00000081H   DATA     BYTE      SP
*SFR* 000000F3H   DATA     BYTE      SPCR
*SFR* 000000F3H   DATA     BYTE      SPCR2
*SFR* 000000F5H   DATA     BYTE      SPDR
*SFR* 000000F4H   DATA     BYTE      SPSR
*SFR* 000000C0H.5 DATA     BIT       STA
*SFR* 00000080H.4 DATA     BIT       STADC
*SFR* 000000C0H.4 DATA     BIT       STO
      02000014H   XDATA    BYTE      Sys_Mode
      01000A2AH   CODE     ---       system_shutdown
LX51 LINKER/LOCATER V4.66.100.0                                                       07/26/2023  22:33:38  PAGE 10


*SFR* 000000C8H   DATA     BYTE      T2CON
*SFR* 000000C9H   DATA     BYTE      T2MOD
*SFR* 000000C4H   DATA     BYTE      T3CON
*SFR* 000000C7H   DATA     BYTE      TA
      0000000EH   DATA     BYTE      TA_REG_TMP
*SFR* 00000098H.3 DATA     BIT       TB8
*SFR* 000000F8H.3 DATA     BIT       TB8_1
*SFR* 00000088H   DATA     BYTE      TCON
*SFR* 00000088H.5 DATA     BIT       TF0
*SFR* 00000088H.7 DATA     BIT       TF1
*SFR* 000000C8H.7 DATA     BIT       TF2
*SFR* 0000008CH   DATA     BYTE      TH0
*SFR* 0000008DH   DATA     BYTE      TH1
*SFR* 000000CDH   DATA     BYTE      TH2
*SFR* 00000098H.1 DATA     BIT       TI
*SFR* 000000F8H.1 DATA     BIT       TI_1
      01000B18H   CODE     ---       Timer3_ISR
*SFR* 0000008AH   DATA     BYTE      TL0
*SFR* 0000008BH   DATA     BYTE      TL1
*SFR* 000000CCH   DATA     BYTE      TL2
*SFR* 00000089H   DATA     BYTE      TMOD
*SFR* 00000088H.4 DATA     BIT       TR0
*SFR* 00000088H.6 DATA     BIT       TR1
*SFR* 000000C8H.2 DATA     BIT       TR2
*SFR* 00000080H.6 DATA     BIT       TXD
*SFR* 00000090H.6 DATA     BIT       TXD_1
      0200003AH   XDATA    BYTE      uart0_receive_data
      00000020H.1 BIT      BIT       uart0_receive_flag
      0200003BH   XDATA    BYTE      uart1_receive_data
      00000020H.2 BIT      BIT       uart1_receive_flag
      02000036H   XDATA    DWORD     uTick
      02000012H   XDATA    WORD      valueps
      01000E0BH   CODE     ---       VCNL36821_Stop
      01000C79H   CODE     ---       VCNL_initialize
*SFR* 000000AAH   DATA     BYTE      WDCON
      01000D45H   CODE     ---       WDT_ISR
*SFR* 0000008FH   DATA     BYTE      WKCON



SYMBOL TABLE OF MODULE:  .\Output\I2C_EEPROM_Master_Polling (HTIM)

      VALUE       REP       CLASS    TYPE      SYMBOL NAME
      ====================================================
      ---         MODULE    ---      ---       HTIM
      02000036H   PUBLIC    XDATA    DWORD     uTick
      01000CCAH   PUBLIC    CODE     ---       _HAL_Delay
      01000DC6H   PUBLIC    CODE     ---       HAL_TIM_run
      01000003H   PUBLIC    CODE     ---       HAL_TIM_Pause
      01000026H   PUBLIC    CODE     ---       HAL_GetTick
      01000728H   PUBLIC    CODE     ---       _Timer3_INT_Initial
      01000B18H   PUBLIC    CODE     ---       Timer3_ISR
      000000F6H   SFRSYM    DATA     BYTE      AINDIDS
      000000B1H   SFRSYM    DATA     BYTE      P0M1
      00000080H.2 SFRSYM    DATA     BIT       RXD_1
      000000B3H   SFRSYM    DATA     BYTE      P1M1
      000000B2H   SFRSYM    DATA     BYTE      P0M2
      00000080H   SFRSYM    DATA     BYTE      P0
      000000BBH   SFRSYM    DATA     BYTE      SADDR_1
      000000B4H   SFRSYM    DATA     BYTE      P1M2
      00000090H   SFRSYM    DATA     BYTE      P1
      00000090H.6 SFRSYM    DATA     BIT       TXD_1
      000000C0H.2 SFRSYM    DATA     BIT       AA
      000000ACH   SFRSYM    DATA     BYTE      P3M1
      000000A0H   SFRSYM    DATA     BYTE      P2
LX51 LINKER/LOCATER V4.66.100.0                                                       07/26/2023  22:33:38  PAGE 11


      000000B0H   SFRSYM    DATA     BYTE      P3
      000000ADH   SFRSYM    DATA     BYTE      P3M2
      000000D0H.6 SFRSYM    DATA     BIT       AC
      0000008FH   SFRSYM    DATA     BYTE      WKCON
      00000084H   SFRSYM    DATA     BYTE      RCTRIM0
      0000009CH   SFRSYM    DATA     BYTE      EIE1
      00000085H   SFRSYM    DATA     BYTE      RCTRIM1
      000000A8H.7 SFRSYM    DATA     BIT       EA
      000000D8H   SFRSYM    DATA     BYTE      PWMCON0
      000000DFH   SFRSYM    DATA     BYTE      PWMCON1
      00000098H.7 SFRSYM    DATA     BIT       FE
      000000A8H.6 SFRSYM    DATA     BIT       EADC
      000000D1H   SFRSYM    DATA     BYTE      PWMPH
      000000A8H   SFRSYM    DATA     BYTE      IE
      00000096H   SFRSYM    DATA     BYTE      CKSWT
      000000E8H.7 SFRSYM    DATA     BIT       ADCF
      000000FEH   SFRSYM    DATA     BYTE      EIP1
      000000D9H   SFRSYM    DATA     BYTE      PWMPL
      000000E8H.0 SFRSYM    DATA     BIT       ADCHS0
      000000C7H   SFRSYM    DATA     BYTE      TA
      000000E8H.1 SFRSYM    DATA     BIT       ADCHS1
      000000E8H.2 SFRSYM    DATA     BIT       ADCHS2
      000000A8H.4 SFRSYM    DATA     BIT       ES
      000000E8H.3 SFRSYM    DATA     BIT       ADCHS3
      000000C1H   SFRSYM    DATA     BYTE      I2ADDR
      000000B8H.6 SFRSYM    DATA     BIT       PADC
      000000B8H   SFRSYM    DATA     BYTE      IP
      00000098H.0 SFRSYM    DATA     BIT       RI
      000000A8H.5 SFRSYM    DATA     BIT       EBOD
      000000C0H.3 SFRSYM    DATA     BIT       SI
      000000D0H.7 SFRSYM    DATA     BIT       CY
      000000E8H.6 SFRSYM    DATA     BIT       ADCS
      000000F8H.7 SFRSYM    DATA     BIT       FE_1
      00000098H.1 SFRSYM    DATA     BIT       TI
      000000D8H.6 SFRSYM    DATA     BIT       LOAD
      00000097H   SFRSYM    DATA     BYTE      CKEN
      000000B8H.4 SFRSYM    DATA     BIT       PS
      00000081H   SFRSYM    DATA     BYTE      SP
      000000D0H.2 SFRSYM    DATA     BIT       OV
      000000B7H   SFRSYM    DATA     BYTE      PWMINTC
      000000B8H.5 SFRSYM    DATA     BIT       PBOD
      000000B2H   SFRSYM    DATA     BYTE      P0SR
      000000F7H   SFRSYM    DATA     BYTE      EIPH
      000000B4H   SFRSYM    DATA     BYTE      P1SR
      000000ADH   SFRSYM    DATA     BYTE      P3SR
      000000F8H.0 SFRSYM    DATA     BIT       RI_1
      000000F8H.1 SFRSYM    DATA     BIT       TI_1
      000000CBH   SFRSYM    DATA     BYTE      RCMP2H
      000000CFH   SFRSYM    DATA     BYTE      ADCMPH
      00000080H.0 SFRSYM    DATA     BIT       P00
      00000080H.1 SFRSYM    DATA     BIT       P01
      00000090H.0 SFRSYM    DATA     BIT       P10
      000000FBH   SFRSYM    DATA     BYTE      PMEN
      00000099H   SFRSYM    DATA     BYTE      SBUF
      00000087H   SFRSYM    DATA     BYTE      PCON
      00000080H.2 SFRSYM    DATA     BIT       P02
      00000090H.1 SFRSYM    DATA     BIT       P11
      000000A0H.0 SFRSYM    DATA     BIT       P20
      000000CAH   SFRSYM    DATA     BYTE      RCMP2L
      00000080H.3 SFRSYM    DATA     BIT       P03
      00000090H.2 SFRSYM    DATA     BIT       P12
      000000B0H.0 SFRSYM    DATA     BIT       P30
      000000E3H   SFRSYM    DATA     BYTE      ADCDLY
      000000CEH   SFRSYM    DATA     BYTE      ADCMPL
      00000080H.4 SFRSYM    DATA     BIT       P04
LX51 LINKER/LOCATER V4.66.100.0                                                       07/26/2023  22:33:38  PAGE 12


      00000090H.3 SFRSYM    DATA     BIT       P13
      00000098H   SFRSYM    DATA     BYTE      SCON
      00000080H.5 SFRSYM    DATA     BIT       P05
      00000090H.4 SFRSYM    DATA     BIT       P14
      00000089H   SFRSYM    DATA     BYTE      TMOD
      00000088H   SFRSYM    DATA     BYTE      TCON
      00000080H.6 SFRSYM    DATA     BIT       P06
      00000090H.5 SFRSYM    DATA     BIT       P15
      00000080H.7 SFRSYM    DATA     BIT       P07
      00000090H.6 SFRSYM    DATA     BIT       P16
      00000090H.7 SFRSYM    DATA     BIT       P17
      00000080H.0 SFRSYM    DATA     BIT       MOSI
      00000080H.1 SFRSYM    DATA     BIT       MISO
      000000F3H   SFRSYM    DATA     BYTE      SPCR
      000000BDH   SFRSYM    DATA     BYTE      I2STAT
      000000F5H   SFRSYM    DATA     BYTE      SPDR
      000000D8H.5 SFRSYM    DATA     BIT       PWMF
      000000E5H   SFRSYM    DATA     BYTE      C0H
      000000E7H   SFRSYM    DATA     BYTE      C1H
      000000EEH   SFRSYM    DATA     BYTE      C2H
      0000009FH   SFRSYM    DATA     BYTE      CHPCON
      00000088H.1 SFRSYM    DATA     BIT       IE0
      00000088H.3 SFRSYM    DATA     BIT       IE1
      000000E4H   SFRSYM    DATA     BYTE      C0L
      00000091H   SFRSYM    DATA     BYTE      SFRS
      000000E6H   SFRSYM    DATA     BYTE      C1L
      000000C8H.0 SFRSYM    DATA     BIT       CM_RL2
      000000F0H   SFRSYM    DATA     BYTE      B
      000000EDH   SFRSYM    DATA     BYTE      C2L
      0000009AH   SFRSYM    DATA     BYTE      SBUF_1
      000000A5H   SFRSYM    DATA     BYTE      IAPUEN
      000000F8H   SFRSYM    DATA     BYTE      SCON_1
      000000E0H   SFRSYM    DATA     BYTE      ACC
      000000A8H.1 SFRSYM    DATA     BIT       ET0
      000000F4H   SFRSYM    DATA     BYTE      SPSR
      000000A4H   SFRSYM    DATA     BYTE      IAPTRG
      00000088H.5 SFRSYM    DATA     BIT       TF0
      000000A8H.3 SFRSYM    DATA     BIT       ET1
      00000088H.7 SFRSYM    DATA     BIT       TF1
      00000098H.2 SFRSYM    DATA     BIT       RB8
      000000C8H.7 SFRSYM    DATA     BIT       TF2
      000000D7H   SFRSYM    DATA     BYTE      FBD
      0000008CH   SFRSYM    DATA     BYTE      TH0
      00000088H.0 SFRSYM    DATA     BIT       IT0
      000000A8H.0 SFRSYM    DATA     BIT       EX0
      000000C6H   SFRSYM    DATA     BYTE      RH3
      0000008DH   SFRSYM    DATA     BYTE      TH1
      00000088H.2 SFRSYM    DATA     BIT       IT1
      00000098H.3 SFRSYM    DATA     BIT       TB8
      000000A8H.2 SFRSYM    DATA     BIT       EX1
      000000CDH   SFRSYM    DATA     BYTE      TH2
      000000D0H.0 SFRSYM    DATA     BIT       P
      000000FAH   SFRSYM    DATA     BYTE      PDTCNT
      00000098H.7 SFRSYM    DATA     BIT       SM0
      0000008AH   SFRSYM    DATA     BYTE      TL0
      00000098H.6 SFRSYM    DATA     BIT       SM1
      000000C5H   SFRSYM    DATA     BYTE      RL3
      0000008BH   SFRSYM    DATA     BYTE      TL1
      00000098H.5 SFRSYM    DATA     BIT       SM2
      000000C0H.6 SFRSYM    DATA     BIT       I2CEN
      000000CCH   SFRSYM    DATA     BYTE      TL2
      000000B1H   SFRSYM    DATA     BYTE      P0S
      0000009BH   SFRSYM    DATA     BYTE      EIE
      000000B8H.1 SFRSYM    DATA     BIT       PT0
      000000B3H   SFRSYM    DATA     BYTE      P1S
LX51 LINKER/LOCATER V4.66.100.0                                                       07/26/2023  22:33:38  PAGE 13


      000000B8H.3 SFRSYM    DATA     BIT       PT1
      000000D0H.3 SFRSYM    DATA     BIT       RS0
      000000BCH   SFRSYM    DATA     BYTE      I2DAT
      000000B5H   SFRSYM    DATA     BYTE      P2S
      00000088H.4 SFRSYM    DATA     BIT       TR0
      000000D0H.4 SFRSYM    DATA     BIT       RS1
      000000BEH   SFRSYM    DATA     BYTE      I2CLK
      000000ACH   SFRSYM    DATA     BYTE      P3S
      00000088H.6 SFRSYM    DATA     BIT       TR1
      000000D8H.4 SFRSYM    DATA     BIT       CLRPWM
      00000090H.4 SFRSYM    DATA     BIT       SDA
      000000B8H.0 SFRSYM    DATA     BIT       PX0
      000000C8H.2 SFRSYM    DATA     BIT       TR2
      000000FFH   SFRSYM    DATA     BYTE      EIPH1
      000000B8H.2 SFRSYM    DATA     BIT       PX1
      000000E8H   SFRSYM    DATA     BYTE      ADCCON0
      000000E1H   SFRSYM    DATA     BYTE      ADCCON1
      000000E2H   SFRSYM    DATA     BYTE      ADCCON2
      000000C0H   SFRSYM    DATA     BYTE      I2CON
      00000083H   SFRSYM    DATA     BYTE      DPH
      000000F8H.2 SFRSYM    DATA     BIT       RB8_1
      000000EFH   SFRSYM    DATA     BYTE      EIP
      000000F8H.3 SFRSYM    DATA     BIT       TB8_1
      000000ECH   SFRSYM    DATA     BYTE      PIF
      00000082H   SFRSYM    DATA     BYTE      DPL
      000000F8H.7 SFRSYM    DATA     BIT       SM0_1
      000000FCH   SFRSYM    DATA     BYTE      PMD
      000000B7H   SFRSYM    DATA     BYTE      IPH
      00000090H.3 SFRSYM    DATA     BIT       SCL
      000000F8H.6 SFRSYM    DATA     BIT       SM1_1
      000000BFH   SFRSYM    DATA     BYTE      I2TOC
      000000F8H.5 SFRSYM    DATA     BIT       SM2_1
      000000C3H   SFRSYM    DATA     BYTE      ADCRH
      000000A7H   SFRSYM    DATA     BYTE      IAPAH
      00000098H.4 SFRSYM    DATA     BIT       REN
      000000AEH   SFRSYM    DATA     BYTE      IAPFD
      00000092H   SFRSYM    DATA     BYTE      CAPCON0
      000000C0H.0 SFRSYM    DATA     BIT       I2CPX
      000000C9H   SFRSYM    DATA     BYTE      T2MOD
      000000C8H   SFRSYM    DATA     BYTE      T2CON
      000000C2H   SFRSYM    DATA     BYTE      ADCRL
      000000A3H   SFRSYM    DATA     BYTE      BODCON0
      00000093H   SFRSYM    DATA     BYTE      CAPCON1
      000000C0H.5 SFRSYM    DATA     BIT       STA
      000000C4H   SFRSYM    DATA     BYTE      T3CON
      000000ABH   SFRSYM    DATA     BYTE      BODCON1
      000000A6H   SFRSYM    DATA     BYTE      IAPAL
      00000094H   SFRSYM    DATA     BYTE      CAPCON2
      000000F1H   SFRSYM    DATA     BYTE      CAPCON3
      000000F2H   SFRSYM    DATA     BYTE      CAPCON4
      000000D8H.7 SFRSYM    DATA     BIT       PWMRUN
      000000F3H   SFRSYM    DATA     BYTE      SPCR2
      000000B9H   SFRSYM    DATA     BYTE      SADEN
      000000AFH   SFRSYM    DATA     BYTE      IAPCN
      000000D2H   SFRSYM    DATA     BYTE      PWM0H
      00000080H.7 SFRSYM    DATA     BIT       RXD
      000000D6H   SFRSYM    DATA     BYTE      PNP
      000000D3H   SFRSYM    DATA     BYTE      PWM1H
      000000D4H   SFRSYM    DATA     BYTE      PWM2H
      000000A9H   SFRSYM    DATA     BYTE      SADDR
      0000008EH   SFRSYM    DATA     BYTE      CKCON
      00000080H.4 SFRSYM    DATA     BIT       STADC
      00000080H.6 SFRSYM    DATA     BIT       TXD
      000000D5H   SFRSYM    DATA     BYTE      PWM3H
      000000DAH   SFRSYM    DATA     BYTE      PWM0L
LX51 LINKER/LOCATER V4.66.100.0                                                       07/26/2023  22:33:38  PAGE 14


      000000C4H   SFRSYM    DATA     BYTE      PWM4H
      000000DBH   SFRSYM    DATA     BYTE      PWM1L
      000000C5H   SFRSYM    DATA     BYTE      PWM5H
      000000A2H   SFRSYM    DATA     BYTE      AUXR1
      00000095H   SFRSYM    DATA     BYTE      CKDIV
      000000DCH   SFRSYM    DATA     BYTE      PWM2L
      000000DDH   SFRSYM    DATA     BYTE      PWM3L
      00000086H   SFRSYM    DATA     BYTE      RWK
      000000D0H.5 SFRSYM    DATA     BIT       F0
      000000CCH   SFRSYM    DATA     BYTE      PWM4L
      000000C0H.4 SFRSYM    DATA     BIT       STO
      000000E8H.4 SFRSYM    DATA     BIT       ETGSEL0
      000000F8H.4 SFRSYM    DATA     BIT       REN_1
      000000CDH   SFRSYM    DATA     BYTE      PWM5L
      000000E8H.5 SFRSYM    DATA     BIT       ETGSEL1
      000000E9H   SFRSYM    DATA     BYTE      PICON
      000000DEH   SFRSYM    DATA     BYTE      PIOCON0
      000000D0H   SFRSYM    DATA     BYTE      PSW
      000000EAH   SFRSYM    DATA     BYTE      PINEN
      000000C6H   SFRSYM    DATA     BYTE      PIOCON1
      000000F9H   SFRSYM    DATA     BYTE      PDTEN
      000000AAH   SFRSYM    DATA     BYTE      WDCON
      000000EBH   SFRSYM    DATA     BYTE      PIPEN
      000000BAH   SFRSYM    DATA     BYTE      SADEN_1

      01000B18H   BLOCK     CODE     ---       LVL=0
      01000B18H   LINE      CODE     ---       #25
      01000B2FH   LINE      CODE     ---       #27
      01000B31H   LINE      CODE     ---       #29
      01000B47H   LINE      CODE     ---       #30
      01000B66H   LINE      CODE     ---       #31
      01000B68H   LINE      CODE     ---       #32
      ---         BLOCKEND  ---      ---       LVL=0

      01000728H   BLOCK     CODE     ---       LVL=0
      00000007H   SYMBOL    DATA     BYTE      u8TMDIV
      0200002DH   SYMBOL    XDATA    BYTE      u8RH3
      0200002EH   SYMBOL    XDATA    BYTE      u8RL3
      01000728H   LINE      CODE     ---       #37
      01000730H   LINE      CODE     ---       #40
      01000730H   LINE      CODE     ---       #41
      01000746H   LINE      CODE     ---       #42
      01000748H   LINE      CODE     ---       #43
      01000769H   LINE      CODE     ---       #44
      01000769H   LINE      CODE     ---       #45
      0100076EH   LINE      CODE     ---       #46
      01000776H   LINE      CODE     ---       #47
      0100077EH   LINE      CODE     ---       #48
      01000786H   LINE      CODE     ---       #49
      0100078EH   LINE      CODE     ---       #50
      01000796H   LINE      CODE     ---       #51
      0100079EH   LINE      CODE     ---       #52
      010007A4H   LINE      CODE     ---       #53
      010007A4H   LINE      CODE     ---       #54
      010007BAH   LINE      CODE     ---       #55
      010007C0H   LINE      CODE     ---       #56
      010007C4H   LINE      CODE     ---       #57
      010007C7H   LINE      CODE     ---       #58
      010007C9H   LINE      CODE     ---       #59
      010007DFH   LINE      CODE     ---       #60
      ---         BLOCKEND  ---      ---       LVL=0

      01000026H   BLOCK     CODE     ---       LVL=0
      01000026H   LINE      CODE     ---       #62
      01000026H   LINE      CODE     ---       #63
LX51 LINKER/LOCATER V4.66.100.0                                                       07/26/2023  22:33:38  PAGE 15


      01000034H   LINE      CODE     ---       #64
      ---         BLOCKEND  ---      ---       LVL=0

      01000003H   BLOCK     CODE     ---       LVL=0
      01000003H   LINE      CODE     ---       #65
      01000003H   LINE      CODE     ---       #66
      01000019H   LINE      CODE     ---       #67
      ---         BLOCKEND  ---      ---       LVL=0

      01000DC6H   BLOCK     CODE     ---       LVL=0
      01000DC6H   LINE      CODE     ---       #68
      01000DC6H   LINE      CODE     ---       #69
      01000DDCH   LINE      CODE     ---       #70
      ---         BLOCKEND  ---      ---       LVL=0

      01000CCAH   BLOCK     CODE     ---       LVL=0
      00000006H   SYMBOL    DATA     WORD      dl
      01000CCAH   BLOCK     CODE     NEAR LAB  LVL=1
      0200002DH   SYMBOL    XDATA    DWORD     tmp
      ---         BLOCKEND  ---      ---       LVL=1
      01000CCAH   LINE      CODE     ---       #71
      01000CCAH   LINE      CODE     ---       #72
      01000CCAH   LINE      CODE     ---       #73
      01000CEBH   LINE      CODE     ---       #74
      01000D0DH   LINE      CODE     ---       #75
      ---         BLOCKEND  ---      ---       LVL=0

      ---         MODULE    ---      ---       MAIN
      02000017H   PUBLIC    XDATA    ---       LCD_CODE
      02000015H   PUBLIC    XDATA    WORD      obj_count
      02000014H   PUBLIC    XDATA    BYTE      Sys_Mode
      02000012H   PUBLIC    XDATA    WORD      valueps
      010007E0H   PUBLIC    CODE     ---       main
      01000D45H   PUBLIC    CODE     ---       WDT_ISR
      0100001AH   PUBLIC    CODE     ---       Check_system_mode
      01000B7DH   PUBLIC    CODE     ---       check_non_obj_detect_timout
      01000056H   PUBLIC    CODE     ---       PinInterrupt_ISR
      0100031FH   PUBLIC    CODE     ---       BTN_process
      01000E3AH   PUBLIC    CODE     ---       btn_time_3sec_callback
      01000E4FH   PUBLIC    CODE     ---       btn_time_2_5sec_callback
      01000E2FH   PUBLIC    CODE     ---       btn_time_2sec_callback
      01000E45H   PUBLIC    CODE     ---       btn_time_click_callback
      01000E61H   PUBLIC    CODE     ---       GPIO_Init
      0100087BH   PUBLIC    CODE     ---       Process_VCNL36821S
      01000E59H   PUBLIC    CODE     ---       reset_counter
      0100055EH   PUBLIC    CODE     ---       _LCD_show
      01000AA4H   PUBLIC    CODE     ---       _LCD_send_bytes
      01000DDDH   PUBLIC    CODE     ---       _LCD_Delay
      0100003EH   PUBLIC    CODE     ---       LCD_INIT
      01000A2AH   PUBLIC    CODE     ---       system_shutdown
      000000F6H   SFRSYM    DATA     BYTE      AINDIDS
      000000B1H   SFRSYM    DATA     BYTE      P0M1
      00000080H.2 SFRSYM    DATA     BIT       RXD_1
      000000B3H   SFRSYM    DATA     BYTE      P1M1
      000000B2H   SFRSYM    DATA     BYTE      P0M2
      00000080H   SFRSYM    DATA     BYTE      P0
      000000BBH   SFRSYM    DATA     BYTE      SADDR_1
      000000B4H   SFRSYM    DATA     BYTE      P1M2
      00000090H   SFRSYM    DATA     BYTE      P1
      00000090H.6 SFRSYM    DATA     BIT       TXD_1
      000000C0H.2 SFRSYM    DATA     BIT       AA
      000000ACH   SFRSYM    DATA     BYTE      P3M1
      000000A0H   SFRSYM    DATA     BYTE      P2
      000000B0H   SFRSYM    DATA     BYTE      P3
      000000ADH   SFRSYM    DATA     BYTE      P3M2
LX51 LINKER/LOCATER V4.66.100.0                                                       07/26/2023  22:33:38  PAGE 16


      000000D0H.6 SFRSYM    DATA     BIT       AC
      0000008FH   SFRSYM    DATA     BYTE      WKCON
      00000084H   SFRSYM    DATA     BYTE      RCTRIM0
      0000009CH   SFRSYM    DATA     BYTE      EIE1
      00000085H   SFRSYM    DATA     BYTE      RCTRIM1
      000000A8H.7 SFRSYM    DATA     BIT       EA
      000000D8H   SFRSYM    DATA     BYTE      PWMCON0
      000000DFH   SFRSYM    DATA     BYTE      PWMCON1
      00000098H.7 SFRSYM    DATA     BIT       FE
      000000A8H.6 SFRSYM    DATA     BIT       EADC
      000000D1H   SFRSYM    DATA     BYTE      PWMPH
      000000A8H   SFRSYM    DATA     BYTE      IE
      00000096H   SFRSYM    DATA     BYTE      CKSWT
      000000E8H.7 SFRSYM    DATA     BIT       ADCF
      000000FEH   SFRSYM    DATA     BYTE      EIP1
      000000D9H   SFRSYM    DATA     BYTE      PWMPL
      000000E8H.0 SFRSYM    DATA     BIT       ADCHS0
      000000C7H   SFRSYM    DATA     BYTE      TA
      000000E8H.1 SFRSYM    DATA     BIT       ADCHS1
      000000E8H.2 SFRSYM    DATA     BIT       ADCHS2
      000000A8H.4 SFRSYM    DATA     BIT       ES
      000000E8H.3 SFRSYM    DATA     BIT       ADCHS3
      000000C1H   SFRSYM    DATA     BYTE      I2ADDR
      000000B8H.6 SFRSYM    DATA     BIT       PADC
      000000B8H   SFRSYM    DATA     BYTE      IP
      00000098H.0 SFRSYM    DATA     BIT       RI
      000000A8H.5 SFRSYM    DATA     BIT       EBOD
      000000C0H.3 SFRSYM    DATA     BIT       SI
      000000D0H.7 SFRSYM    DATA     BIT       CY
      000000E8H.6 SFRSYM    DATA     BIT       ADCS
      000000F8H.7 SFRSYM    DATA     BIT       FE_1
      00000098H.1 SFRSYM    DATA     BIT       TI
      000000D8H.6 SFRSYM    DATA     BIT       LOAD
      00000097H   SFRSYM    DATA     BYTE      CKEN
      000000B8H.4 SFRSYM    DATA     BIT       PS
      00000081H   SFRSYM    DATA     BYTE      SP
      000000D0H.2 SFRSYM    DATA     BIT       OV
      000000B7H   SFRSYM    DATA     BYTE      PWMINTC
      000000B8H.5 SFRSYM    DATA     BIT       PBOD
      000000B2H   SFRSYM    DATA     BYTE      P0SR
      000000F7H   SFRSYM    DATA     BYTE      EIPH
      000000B4H   SFRSYM    DATA     BYTE      P1SR
      000000ADH   SFRSYM    DATA     BYTE      P3SR
      000000F8H.0 SFRSYM    DATA     BIT       RI_1
      000000F8H.1 SFRSYM    DATA     BIT       TI_1
      000000CBH   SFRSYM    DATA     BYTE      RCMP2H
      000000CFH   SFRSYM    DATA     BYTE      ADCMPH
      00000080H.0 SFRSYM    DATA     BIT       P00
      00000080H.1 SFRSYM    DATA     BIT       P01
      00000090H.0 SFRSYM    DATA     BIT       P10
      000000FBH   SFRSYM    DATA     BYTE      PMEN
      00000099H   SFRSYM    DATA     BYTE      SBUF
      00000087H   SFRSYM    DATA     BYTE      PCON
      00000080H.2 SFRSYM    DATA     BIT       P02
      00000090H.1 SFRSYM    DATA     BIT       P11
      000000A0H.0 SFRSYM    DATA     BIT       P20
      000000CAH   SFRSYM    DATA     BYTE      RCMP2L
      00000080H.3 SFRSYM    DATA     BIT       P03
      00000090H.2 SFRSYM    DATA     BIT       P12
      000000B0H.0 SFRSYM    DATA     BIT       P30
      000000E3H   SFRSYM    DATA     BYTE      ADCDLY
      000000CEH   SFRSYM    DATA     BYTE      ADCMPL
      00000080H.4 SFRSYM    DATA     BIT       P04
      00000090H.3 SFRSYM    DATA     BIT       P13
      00000098H   SFRSYM    DATA     BYTE      SCON
LX51 LINKER/LOCATER V4.66.100.0                                                       07/26/2023  22:33:38  PAGE 17


      00000080H.5 SFRSYM    DATA     BIT       P05
      00000090H.4 SFRSYM    DATA     BIT       P14
      00000089H   SFRSYM    DATA     BYTE      TMOD
      00000088H   SFRSYM    DATA     BYTE      TCON
      00000080H.6 SFRSYM    DATA     BIT       P06
      00000090H.5 SFRSYM    DATA     BIT       P15
      00000080H.7 SFRSYM    DATA     BIT       P07
      00000090H.6 SFRSYM    DATA     BIT       P16
      00000090H.7 SFRSYM    DATA     BIT       P17
      00000080H.0 SFRSYM    DATA     BIT       MOSI
      00000080H.1 SFRSYM    DATA     BIT       MISO
      000000F3H   SFRSYM    DATA     BYTE      SPCR
      000000BDH   SFRSYM    DATA     BYTE      I2STAT
      000000F5H   SFRSYM    DATA     BYTE      SPDR
      000000D8H.5 SFRSYM    DATA     BIT       PWMF
      000000E5H   SFRSYM    DATA     BYTE      C0H
      000000E7H   SFRSYM    DATA     BYTE      C1H
      000000EEH   SFRSYM    DATA     BYTE      C2H
      0000009FH   SFRSYM    DATA     BYTE      CHPCON
      00000088H.1 SFRSYM    DATA     BIT       IE0
      00000088H.3 SFRSYM    DATA     BIT       IE1
      000000E4H   SFRSYM    DATA     BYTE      C0L
      00000091H   SFRSYM    DATA     BYTE      SFRS
      000000E6H   SFRSYM    DATA     BYTE      C1L
      000000C8H.0 SFRSYM    DATA     BIT       CM_RL2
      000000F0H   SFRSYM    DATA     BYTE      B
      000000EDH   SFRSYM    DATA     BYTE      C2L
      0000009AH   SFRSYM    DATA     BYTE      SBUF_1
      000000A5H   SFRSYM    DATA     BYTE      IAPUEN
      000000F8H   SFRSYM    DATA     BYTE      SCON_1
      000000E0H   SFRSYM    DATA     BYTE      ACC
      000000A8H.1 SFRSYM    DATA     BIT       ET0
      000000F4H   SFRSYM    DATA     BYTE      SPSR
      000000A4H   SFRSYM    DATA     BYTE      IAPTRG
      00000088H.5 SFRSYM    DATA     BIT       TF0
      000000A8H.3 SFRSYM    DATA     BIT       ET1
      00000088H.7 SFRSYM    DATA     BIT       TF1
      00000098H.2 SFRSYM    DATA     BIT       RB8
      000000C8H.7 SFRSYM    DATA     BIT       TF2
      000000D7H   SFRSYM    DATA     BYTE      FBD
      0000008CH   SFRSYM    DATA     BYTE      TH0
      00000088H.0 SFRSYM    DATA     BIT       IT0
      000000A8H.0 SFRSYM    DATA     BIT       EX0
      000000C6H   SFRSYM    DATA     BYTE      RH3
      0000008DH   SFRSYM    DATA     BYTE      TH1
      00000088H.2 SFRSYM    DATA     BIT       IT1
      00000098H.3 SFRSYM    DATA     BIT       TB8
      000000A8H.2 SFRSYM    DATA     BIT       EX1
      000000CDH   SFRSYM    DATA     BYTE      TH2
      000000D0H.0 SFRSYM    DATA     BIT       P
      000000FAH   SFRSYM    DATA     BYTE      PDTCNT
      00000098H.7 SFRSYM    DATA     BIT       SM0
      0000008AH   SFRSYM    DATA     BYTE      TL0
      00000098H.6 SFRSYM    DATA     BIT       SM1
      000000C5H   SFRSYM    DATA     BYTE      RL3
      0000008BH   SFRSYM    DATA     BYTE      TL1
      00000098H.5 SFRSYM    DATA     BIT       SM2
      000000C0H.6 SFRSYM    DATA     BIT       I2CEN
      000000CCH   SFRSYM    DATA     BYTE      TL2
      000000B1H   SFRSYM    DATA     BYTE      P0S
      0000009BH   SFRSYM    DATA     BYTE      EIE
      000000B8H.1 SFRSYM    DATA     BIT       PT0
      000000B3H   SFRSYM    DATA     BYTE      P1S
      000000B8H.3 SFRSYM    DATA     BIT       PT1
      000000D0H.3 SFRSYM    DATA     BIT       RS0
LX51 LINKER/LOCATER V4.66.100.0                                                       07/26/2023  22:33:38  PAGE 18


      000000BCH   SFRSYM    DATA     BYTE      I2DAT
      000000B5H   SFRSYM    DATA     BYTE      P2S
      00000088H.4 SFRSYM    DATA     BIT       TR0
      000000D0H.4 SFRSYM    DATA     BIT       RS1
      000000BEH   SFRSYM    DATA     BYTE      I2CLK
      000000ACH   SFRSYM    DATA     BYTE      P3S
      00000088H.6 SFRSYM    DATA     BIT       TR1
      000000D8H.4 SFRSYM    DATA     BIT       CLRPWM
      00000090H.4 SFRSYM    DATA     BIT       SDA
      000000B8H.0 SFRSYM    DATA     BIT       PX0
      000000C8H.2 SFRSYM    DATA     BIT       TR2
      000000FFH   SFRSYM    DATA     BYTE      EIPH1
      000000B8H.2 SFRSYM    DATA     BIT       PX1
      000000E8H   SFRSYM    DATA     BYTE      ADCCON0
      000000E1H   SFRSYM    DATA     BYTE      ADCCON1
      000000E2H   SFRSYM    DATA     BYTE      ADCCON2
      000000C0H   SFRSYM    DATA     BYTE      I2CON
      00000083H   SFRSYM    DATA     BYTE      DPH
      000000F8H.2 SFRSYM    DATA     BIT       RB8_1
      000000EFH   SFRSYM    DATA     BYTE      EIP
      000000F8H.3 SFRSYM    DATA     BIT       TB8_1
      000000ECH   SFRSYM    DATA     BYTE      PIF
      00000082H   SFRSYM    DATA     BYTE      DPL
      000000F8H.7 SFRSYM    DATA     BIT       SM0_1
      000000FCH   SFRSYM    DATA     BYTE      PMD
      000000B7H   SFRSYM    DATA     BYTE      IPH
      00000090H.3 SFRSYM    DATA     BIT       SCL
      000000F8H.6 SFRSYM    DATA     BIT       SM1_1
      000000BFH   SFRSYM    DATA     BYTE      I2TOC
      000000F8H.5 SFRSYM    DATA     BIT       SM2_1
      000000C3H   SFRSYM    DATA     BYTE      ADCRH
      000000A7H   SFRSYM    DATA     BYTE      IAPAH
      00000098H.4 SFRSYM    DATA     BIT       REN
      000000AEH   SFRSYM    DATA     BYTE      IAPFD
      00000092H   SFRSYM    DATA     BYTE      CAPCON0
      000000C0H.0 SFRSYM    DATA     BIT       I2CPX
      000000C9H   SFRSYM    DATA     BYTE      T2MOD
      000000C8H   SFRSYM    DATA     BYTE      T2CON
      000000C2H   SFRSYM    DATA     BYTE      ADCRL
      000000A3H   SFRSYM    DATA     BYTE      BODCON0
      00000093H   SFRSYM    DATA     BYTE      CAPCON1
      000000C0H.5 SFRSYM    DATA     BIT       STA
      000000C4H   SFRSYM    DATA     BYTE      T3CON
      000000ABH   SFRSYM    DATA     BYTE      BODCON1
      000000A6H   SFRSYM    DATA     BYTE      IAPAL
      00000094H   SFRSYM    DATA     BYTE      CAPCON2
      000000F1H   SFRSYM    DATA     BYTE      CAPCON3
      000000F2H   SFRSYM    DATA     BYTE      CAPCON4
      000000D8H.7 SFRSYM    DATA     BIT       PWMRUN
      000000F3H   SFRSYM    DATA     BYTE      SPCR2
      000000B9H   SFRSYM    DATA     BYTE      SADEN
      000000AFH   SFRSYM    DATA     BYTE      IAPCN
      000000D2H   SFRSYM    DATA     BYTE      PWM0H
      00000080H.7 SFRSYM    DATA     BIT       RXD
      000000D6H   SFRSYM    DATA     BYTE      PNP
      000000D3H   SFRSYM    DATA     BYTE      PWM1H
      000000D4H   SFRSYM    DATA     BYTE      PWM2H
      000000A9H   SFRSYM    DATA     BYTE      SADDR
      0000008EH   SFRSYM    DATA     BYTE      CKCON
      00000080H.4 SFRSYM    DATA     BIT       STADC
      00000080H.6 SFRSYM    DATA     BIT       TXD
      000000D5H   SFRSYM    DATA     BYTE      PWM3H
      000000DAH   SFRSYM    DATA     BYTE      PWM0L
      000000C4H   SFRSYM    DATA     BYTE      PWM4H
      000000DBH   SFRSYM    DATA     BYTE      PWM1L
LX51 LINKER/LOCATER V4.66.100.0                                                       07/26/2023  22:33:38  PAGE 19


      000000C5H   SFRSYM    DATA     BYTE      PWM5H
      000000A2H   SFRSYM    DATA     BYTE      AUXR1
      00000095H   SFRSYM    DATA     BYTE      CKDIV
      000000DCH   SFRSYM    DATA     BYTE      PWM2L
      000000DDH   SFRSYM    DATA     BYTE      PWM3L
      00000086H   SFRSYM    DATA     BYTE      RWK
      000000D0H.5 SFRSYM    DATA     BIT       F0
      000000CCH   SFRSYM    DATA     BYTE      PWM4L
      000000C0H.4 SFRSYM    DATA     BIT       STO
      000000E8H.4 SFRSYM    DATA     BIT       ETGSEL0
      000000F8H.4 SFRSYM    DATA     BIT       REN_1
      000000CDH   SFRSYM    DATA     BYTE      PWM5L
      000000E8H.5 SFRSYM    DATA     BIT       ETGSEL1
      000000E9H   SFRSYM    DATA     BYTE      PICON
      000000DEH   SFRSYM    DATA     BYTE      PIOCON0
      000000D0H   SFRSYM    DATA     BYTE      PSW
      000000EAH   SFRSYM    DATA     BYTE      PINEN
      000000C6H   SFRSYM    DATA     BYTE      PIOCON1
      000000F9H   SFRSYM    DATA     BYTE      PDTEN
      000000AAH   SFRSYM    DATA     BYTE      WDCON
      000000EBH   SFRSYM    DATA     BYTE      PIPEN
      000000BAH   SFRSYM    DATA     BYTE      SADEN_1

      01000A2AH   BLOCK     CODE     ---       LVL=0
      01000A2AH   LINE      CODE     ---       #44
      01000A2AH   LINE      CODE     ---       #45
      01000A2DH   LINE      CODE     ---       #46
      01000A49H   LINE      CODE     ---       #47
      01000A6AH   LINE      CODE     ---       #48
      01000A73H   LINE      CODE     ---       #49
      01000A76H   LINE      CODE     ---       #50
      01000A78H   LINE      CODE     ---       #51
      01000A78H   LINE      CODE     ---       #52
      01000A78H   LINE      CODE     ---       #53
      01000A7BH   LINE      CODE     ---       #54
      01000A7DH   LINE      CODE     ---       #55
      01000A80H   LINE      CODE     ---       #56
      01000A83H   LINE      CODE     ---       #57
      01000A8AH   LINE      CODE     ---       #58
      01000A8DH   LINE      CODE     ---       #59
      01000A90H   LINE      CODE     ---       #60
      01000A90H   LINE      CODE     ---       #61
      01000A90H   LINE      CODE     ---       #62
      01000A90H   LINE      CODE     ---       #63
      01000AA3H   LINE      CODE     ---       #65
      ---         BLOCKEND  ---      ---       LVL=0

      0100003EH   BLOCK     CODE     ---       LVL=0
      0100003EH   LINE      CODE     ---       #66
      0100003EH   LINE      CODE     ---       #67
      0100003EH   LINE      CODE     ---       #72
      01000041H   LINE      CODE     ---       #73
      01000044H   LINE      CODE     ---       #74
      01000046H   LINE      CODE     ---       #75
      01000048H   LINE      CODE     ---       #76
      0100004AH   LINE      CODE     ---       #77
      0100004CH   LINE      CODE     ---       #78
      ---         BLOCKEND  ---      ---       LVL=0

      01000DDDH   BLOCK     CODE     ---       LVL=0
      00000007H   SYMBOL    DATA     BYTE      dl
      01000DDDH   BLOCK     CODE     NEAR LAB  LVL=1
      00000004H   SYMBOL    DATA     INT       i
      ---         BLOCKEND  ---      ---       LVL=1
      01000DDDH   LINE      CODE     ---       #79
LX51 LINKER/LOCATER V4.66.100.0                                                       07/26/2023  22:33:38  PAGE 20


      01000DDDH   LINE      CODE     ---       #80
      01000DDDH   LINE      CODE     ---       #82
      01000DECH   LINE      CODE     ---       #83
      01000DECH   LINE      CODE     ---       #84
      01000DF3H   LINE      CODE     ---       #85
      ---         BLOCKEND  ---      ---       LVL=0

      01000AA4H   BLOCK     CODE     ---       LVL=0
      02000030H   SYMBOL    XDATA    ---       dt
      01000AAFH   BLOCK     CODE     NEAR LAB  LVL=1
      02000033H   SYMBOL    XDATA    CHAR      i
      02000034H   SYMBOL    XDATA    CHAR      j
      ---         BLOCKEND  ---      ---       LVL=1
      01000AA4H   LINE      CODE     ---       #87
      01000AAFH   LINE      CODE     ---       #88
      01000AAFH   LINE      CODE     ---       #90
      01000AB1H   LINE      CODE     ---       #91
      01000AB5H   LINE      CODE     ---       #92
      01000AB5H   LINE      CODE     ---       #93
      01000AC7H   LINE      CODE     ---       #94
      01000AC7H   LINE      CODE     ---       #95
      01000AC9H   LINE      CODE     ---       #96
      01000AEEH   LINE      CODE     ---       #97
      01000AF3H   LINE      CODE     ---       #98
      01000AF5H   LINE      CODE     ---       #99
      01000AF8H   LINE      CODE     ---       #100
      01000B00H   LINE      CODE     ---       #101
      01000B0EH   LINE      CODE     ---       #102
      01000B10H   LINE      CODE     ---       #103
      01000B15H   LINE      CODE     ---       #104
      01000B17H   LINE      CODE     ---       #105
      ---         BLOCKEND  ---      ---       LVL=0

      0100055EH   BLOCK     CODE     ---       LVL=0
      00000002H   SYMBOL    DATA     WORD      count
      01000562H   BLOCK     CODE     NEAR LAB  LVL=1
      0200002DH   SYMBOL    XDATA    ---       lcd_data
      ---         BLOCKEND  ---      ---       LVL=1
      0100055EH   LINE      CODE     ---       #109
      01000562H   LINE      CODE     ---       #110
      01000562H   LINE      CODE     ---       #112
      01000568H   LINE      CODE     ---       #113
      01000568H   LINE      CODE     ---       #114
      01000572H   LINE      CODE     ---       #115
      0100058FH   LINE      CODE     ---       #116
      010005B3H   LINE      CODE     ---       #117
      010005BBH   LINE      CODE     ---       #118
      010005BFH   LINE      CODE     ---       #119
      010005BFH   LINE      CODE     ---       #120
      010005C7H   LINE      CODE     ---       #121
      010005CBH   LINE      CODE     ---       #122
      010005CBH   LINE      CODE     ---       #123
      010005D3H   LINE      CODE     ---       #124
      010005D3H   LINE      CODE     ---       #125
      010005D3H   LINE      CODE     ---       #126
      010005D5H   LINE      CODE     ---       #128
      010005D5H   LINE      CODE     ---       #129
      010005E4H   LINE      CODE     ---       #130
      010005FEH   LINE      CODE     ---       #131
      0100061FH   LINE      CODE     ---       #132
      01000639H   LINE      CODE     ---       #133
      01000639H   LINE      CODE     ---       #134
      01000642H   LINE      CODE     ---       #135
      01000647H   LINE      CODE     ---       #136
      01000654H   LINE      CODE     ---       #137
LX51 LINKER/LOCATER V4.66.100.0                                                       07/26/2023  22:33:38  PAGE 21


      0100065DH   LINE      CODE     ---       #138
      01000662H   LINE      CODE     ---       #139
      ---         BLOCKEND  ---      ---       LVL=0

      01000E59H   BLOCK     CODE     ---       LVL=0
      01000E59H   LINE      CODE     ---       #149
      01000E59H   LINE      CODE     ---       #150
      01000E60H   LINE      CODE     ---       #151
      ---         BLOCKEND  ---      ---       LVL=0

      0100087BH   BLOCK     CODE     ---       LVL=0
      0100087BH   BLOCK     CODE     NEAR LAB  LVL=1
      02000000H   SYMBOL    XDATA    DWORD     ttime
      02000004H   SYMBOL    XDATA    BYTE      error
      02000005H   SYMBOL    XDATA    BYTE      object_detected
      02000006H   SYMBOL    XDATA    BYTE      non_object_detected
      ---         BLOCKEND  ---      ---       LVL=1
      0100087BH   LINE      CODE     ---       #152
      0100087BH   LINE      CODE     ---       #157
      01000895H   LINE      CODE     ---       #158
      01000895H   LINE      CODE     ---       #159
      010008ACH   LINE      CODE     ---       #160
      010008BAH   LINE      CODE     ---       #161
      010008BAH   LINE      CODE     ---       #162
      010008C9H   LINE      CODE     ---       #163
      010008C9H   LINE      CODE     ---       #164
      010008CEH   LINE      CODE     ---       #165
      010008D2H   LINE      CODE     ---       #166
      010008D7H   LINE      CODE     ---       #167
      010008D7H   LINE      CODE     ---       #168
      010008DDH   LINE      CODE     ---       #169
      010008DDH   LINE      CODE     ---       #170
      010008EBH   LINE      CODE     ---       #171
      010008EBH   LINE      CODE     ---       #172
      010008EBH   LINE      CODE     ---       #173
      010008F1H   LINE      CODE     ---       #174
      010008F1H   LINE      CODE     ---       #175
      010008F7H   LINE      CODE     ---       #176
      010008F7H   LINE      CODE     ---       #177
      010008FEH   LINE      CODE     ---       #178
      01000902H   LINE      CODE     ---       #179
      01000905H   LINE      CODE     ---       #180
      01000909H   LINE      CODE     ---       #181
      0100090DH   LINE      CODE     ---       #182
      0100090DH   LINE      CODE     ---       #183
      0100090DH   LINE      CODE     ---       #184
      0100090EH   LINE      CODE     ---       #185
      0100090EH   LINE      CODE     ---       #186
      01000914H   LINE      CODE     ---       #187
      01000914H   LINE      CODE     ---       #189
      01000914H   LINE      CODE     ---       #190
      01000914H   LINE      CODE     ---       #192
      01000914H   LINE      CODE     ---       #193
      ---         BLOCKEND  ---      ---       LVL=0

      01000E61H   BLOCK     CODE     ---       LVL=0
      01000E61H   LINE      CODE     ---       #195
      01000E61H   LINE      CODE     ---       #196
      01000E61H   LINE      CODE     ---       #198
      01000E64H   LINE      CODE     ---       #199
      01000E67H   LINE      CODE     ---       #200
      ---         BLOCKEND  ---      ---       LVL=0

      01000E45H   BLOCK     CODE     ---       LVL=0
      01000E45H   LINE      CODE     ---       #211
LX51 LINKER/LOCATER V4.66.100.0                                                       07/26/2023  22:33:38  PAGE 22


      01000E45H   LINE      CODE     ---       #212
      01000E45H   LINE      CODE     ---       #213
      01000E4BH   LINE      CODE     ---       #214
      01000E4EH   LINE      CODE     ---       #215
      01000E4EH   LINE      CODE     ---       #216
      ---         BLOCKEND  ---      ---       LVL=0

      01000E2FH   BLOCK     CODE     ---       LVL=0
      01000E2FH   LINE      CODE     ---       #217
      01000E2FH   LINE      CODE     ---       #218
      01000E2FH   LINE      CODE     ---       #219
      01000E36H   LINE      CODE     ---       #220
      01000E39H   LINE      CODE     ---       #221
      01000E39H   LINE      CODE     ---       #222
      ---         BLOCKEND  ---      ---       LVL=0

      01000E4FH   BLOCK     CODE     ---       LVL=0
      01000E4FH   LINE      CODE     ---       #223
      01000E4FH   LINE      CODE     ---       #224
      01000E4FH   LINE      CODE     ---       #225
      01000E55H   LINE      CODE     ---       #226
      01000E58H   LINE      CODE     ---       #227
      01000E58H   LINE      CODE     ---       #228
      ---         BLOCKEND  ---      ---       LVL=0

      01000E3AH   BLOCK     CODE     ---       LVL=0
      01000E3AH   LINE      CODE     ---       #229
      01000E3AH   LINE      CODE     ---       #230
      01000E3AH   LINE      CODE     ---       #231
      01000E41H   LINE      CODE     ---       #232
      01000E44H   LINE      CODE     ---       #233
      01000E44H   LINE      CODE     ---       #234
      ---         BLOCKEND  ---      ---       LVL=0

      0100031FH   BLOCK     CODE     ---       LVL=0
      0100031FH   BLOCK     CODE     NEAR LAB  LVL=1
      02000007H   SYMBOL    XDATA    DWORD     btn_time
      0200000BH   SYMBOL    XDATA    BYTE      btn_state
      ---         BLOCKEND  ---      ---       LVL=1
      0100031FH   LINE      CODE     ---       #235
      0100031FH   LINE      CODE     ---       #236
      0100031FH   LINE      CODE     ---       #239
      01000325H   LINE      CODE     ---       #240
      01000343H   LINE      CODE     ---       #241
      01000343H   LINE      CODE     ---       #242
      01000349H   LINE      CODE     ---       #243
      0100035FH   LINE      CODE     ---       #244
      01000360H   LINE      CODE     ---       #245
      01000360H   LINE      CODE     ---       #246
      0100037AH   LINE      CODE     ---       #247
      01000380H   LINE      CODE     ---       #248
      01000383H   LINE      CODE     ---       #249
      0100039AH   LINE      CODE     ---       #250
      0100039AH   LINE      CODE     ---       #251
      0100039BH   LINE      CODE     ---       #252
      0100039BH   LINE      CODE     ---       #253
      010003B5H   LINE      CODE     ---       #254
      010003B8H   LINE      CODE     ---       #255
      010003BEH   LINE      CODE     ---       #256
      010003D5H   LINE      CODE     ---       #257
      010003D5H   LINE      CODE     ---       #258
      010003D6H   LINE      CODE     ---       #259
      010003D6H   LINE      CODE     ---       #260
      010003EDH   LINE      CODE     ---       #261
      010003F0H   LINE      CODE     ---       #262
LX51 LINKER/LOCATER V4.66.100.0                                                       07/26/2023  22:33:38  PAGE 23


      010003F6H   LINE      CODE     ---       #263
      0100040DH   LINE      CODE     ---       #264
      0100040DH   LINE      CODE     ---       #265
      0100040EH   LINE      CODE     ---       #266
      0100040EH   LINE      CODE     ---       #267
      01000425H   LINE      CODE     ---       #268
      01000428H   LINE      CODE     ---       #269
      01000428H   LINE      CODE     ---       #270
      01000429H   LINE      CODE     ---       #271
      01000429H   LINE      CODE     ---       #272
      01000429H   LINE      CODE     ---       #274
      01000429H   LINE      CODE     ---       #275
      01000429H   LINE      CODE     ---       #276
      01000429H   LINE      CODE     ---       #277
      0100042AH   LINE      CODE     ---       #278
      0100042AH   LINE      CODE     ---       #279
      0100042BH   LINE      CODE     ---       #280
      01000433H   LINE      CODE     ---       #281
      01000433H   LINE      CODE     ---       #282
      01000433H   LINE      CODE     ---       #283
      0100043AH   LINE      CODE     ---       #284
      01000448H   LINE      CODE     ---       #285
      01000448H   LINE      CODE     ---       #286
      01000448H   LINE      CODE     ---       #287
      01000448H   LINE      CODE     ---       #288
      0100044DH   LINE      CODE     ---       #289
      0100044DH   LINE      CODE     ---       #290
      ---         BLOCKEND  ---      ---       LVL=0

      01000056H   BLOCK     CODE     ---       LVL=0
      01000056H   LINE      CODE     ---       #292
      0100005FH   LINE      CODE     ---       #294
      01000061H   LINE      CODE     ---       #296
      01000064H   LINE      CODE     ---       #297
      0100006BH   LINE      CODE     ---       #298
      0100006BH   LINE      CODE     ---       #299
      0100006BH   LINE      CODE     ---       #300
      0100006EH   LINE      CODE     ---       #301
      0100006EH   LINE      CODE     ---       #302
      0100006EH   LINE      CODE     ---       #303
      0100006EH   LINE      CODE     ---       #304
      0100006EH   LINE      CODE     ---       #306
      01000070H   LINE      CODE     ---       #307
      ---         BLOCKEND  ---      ---       LVL=0

      01000B7DH   BLOCK     CODE     ---       LVL=0
      01000B7DH   BLOCK     CODE     NEAR LAB  LVL=1
      0200000CH   SYMBOL    XDATA    WORD      old_obj_count
      0200000EH   SYMBOL    XDATA    DWORD     timout
      ---         BLOCKEND  ---      ---       LVL=1
      01000B7DH   LINE      CODE     ---       #309
      01000B7DH   LINE      CODE     ---       #310
      01000B7DH   LINE      CODE     ---       #313
      01000B91H   LINE      CODE     ---       #314
      01000B91H   LINE      CODE     ---       #315
      01000BA9H   LINE      CODE     ---       #316
      01000BB8H   LINE      CODE     ---       #317
      01000BB8H   LINE      CODE     ---       #318
      01000BCFH   LINE      CODE     ---       #319
      01000BCFH   LINE      CODE     ---       #320
      01000BD2H   LINE      CODE     ---       #321
      01000BD2H   LINE      CODE     ---       #323
      ---         BLOCKEND  ---      ---       LVL=0

      0100001AH   BLOCK     CODE     ---       LVL=0
LX51 LINKER/LOCATER V4.66.100.0                                                       07/26/2023  22:33:38  PAGE 24


      0100001AH   LINE      CODE     ---       #325
      0100001AH   LINE      CODE     ---       #326
      0100001AH   LINE      CODE     ---       #327
      0100001DH   LINE      CODE     ---       #328
      0100001DH   LINE      CODE     ---       #329
      01000020H   LINE      CODE     ---       #330
      01000020H   LINE      CODE     ---       #331
      01000022H   LINE      CODE     ---       #332
      ---         BLOCKEND  ---      ---       LVL=0

      01000D45H   BLOCK     CODE     ---       LVL=0
      01000D45H   LINE      CODE     ---       #334
      01000D4EH   LINE      CODE     ---       #336
      01000D50H   LINE      CODE     ---       #339
      01000D63H   LINE      CODE     ---       #340
      01000D6CH   LINE      CODE     ---       #341
      01000D6EH   LINE      CODE     ---       #343
      01000D71H   LINE      CODE     ---       #344
      01000D73H   LINE      CODE     ---       #345
      ---         BLOCKEND  ---      ---       LVL=0
      00000007H   SYMBOL    DATA     BYTE      cf0
      00000006H   SYMBOL    DATA     BYTE      cf1
      00000005H   SYMBOL    DATA     BYTE      cf2
      00000004H   SYMBOL    DATA     BYTE      cf3
      00000003H   SYMBOL    DATA     BYTE      cf4

      010007E0H   BLOCK     CODE     ---       LVL=0
      010007E0H   BLOCK     CODE     NEAR LAB  LVL=1
      02000027H   SYMBOL    XDATA    WORD      id
      02000029H   SYMBOL    XDATA    DWORD     ttime
      ---         BLOCKEND  ---      ---       LVL=1
      010007E0H   LINE      CODE     ---       #405
      010007E0H   LINE      CODE     ---       #406
      010007E0H   LINE      CODE     ---       #407
      010007E7H   LINE      CODE     ---       #408
      010007EFH   LINE      CODE     ---       #409
      01000811H   LINE      CODE     ---       #410
      01000816H   LINE      CODE     ---       #412
      01000819H   LINE      CODE     ---       #413
      01000821H   LINE      CODE     ---       #414
      01000824H   LINE      CODE     ---       #415
      01000827H   LINE      CODE     ---       #416
      01000830H   LINE      CODE     ---       #417
      01000836H   LINE      CODE     ---       #418
      01000839H   LINE      CODE     ---       #419
      0100083BH   LINE      CODE     ---       #420
      0100083EH   LINE      CODE     ---       #421
      0100083EH   LINE      CODE     ---       #422
      01000841H   LINE      CODE     ---       #432
      01000841H   LINE      CODE     ---       #433
      01000841H   LINE      CODE     ---       #435
      01000844H   LINE      CODE     ---       #436
      0100084AH   LINE      CODE     ---       #437
      0100084DH   LINE      CODE     ---       #438
      0100084DH   LINE      CODE     ---       #439
      01000857H   LINE      CODE     ---       #440
      01000857H   LINE      CODE     ---       #441
      0100086AH   LINE      CODE     ---       #442
      0100086AH   LINE      CODE     ---       #443
      01000875H   LINE      CODE     ---       #444
      01000878H   LINE      CODE     ---       #445
      ---         BLOCKEND  ---      ---       LVL=0

      ---         MODULE    ---      ---       VCNL36821
      00000020H.3 PUBLIC    BIT      BIT       I2C_Reset_Flag
LX51 LINKER/LOCATER V4.66.100.0                                                       07/26/2023  22:33:38  PAGE 25


      01000E0BH   PUBLIC    CODE     ---       VCNL36821_Stop
      01000C79H   PUBLIC    CODE     ---       VCNL_initialize
      01000E21H   PUBLIC    CODE     ---       _writeWord
      01000BD3H   PUBLIC    CODE     ---       _readWord
      01000663H   PUBLIC    CODE     ---       _VCNL36821_Read_register
      010009AFH   PUBLIC    CODE     ---       _VCNL36821_Write_register
      01000DF4H   PUBLIC    CODE     ---       I2C_SI_Check
      01000D0EH   PUBLIC    CODE     ---       Init_I2C
      000000F6H   SFRSYM    DATA     BYTE      AINDIDS
      000000B1H   SFRSYM    DATA     BYTE      P0M1
      00000080H.2 SFRSYM    DATA     BIT       RXD_1
      000000B3H   SFRSYM    DATA     BYTE      P1M1
      000000B2H   SFRSYM    DATA     BYTE      P0M2
      00000080H   SFRSYM    DATA     BYTE      P0
      000000BBH   SFRSYM    DATA     BYTE      SADDR_1
      000000B4H   SFRSYM    DATA     BYTE      P1M2
      00000090H   SFRSYM    DATA     BYTE      P1
      00000090H.6 SFRSYM    DATA     BIT       TXD_1
      000000C0H.2 SFRSYM    DATA     BIT       AA
      000000ACH   SFRSYM    DATA     BYTE      P3M1
      000000A0H   SFRSYM    DATA     BYTE      P2
      000000B0H   SFRSYM    DATA     BYTE      P3
      000000ADH   SFRSYM    DATA     BYTE      P3M2
      000000D0H.6 SFRSYM    DATA     BIT       AC
      0000008FH   SFRSYM    DATA     BYTE      WKCON
      00000084H   SFRSYM    DATA     BYTE      RCTRIM0
      0000009CH   SFRSYM    DATA     BYTE      EIE1
      00000085H   SFRSYM    DATA     BYTE      RCTRIM1
      000000A8H.7 SFRSYM    DATA     BIT       EA
      000000D8H   SFRSYM    DATA     BYTE      PWMCON0
      000000DFH   SFRSYM    DATA     BYTE      PWMCON1
      00000098H.7 SFRSYM    DATA     BIT       FE
      000000A8H.6 SFRSYM    DATA     BIT       EADC
      000000D1H   SFRSYM    DATA     BYTE      PWMPH
      000000A8H   SFRSYM    DATA     BYTE      IE
      00000096H   SFRSYM    DATA     BYTE      CKSWT
      000000E8H.7 SFRSYM    DATA     BIT       ADCF
      000000FEH   SFRSYM    DATA     BYTE      EIP1
      000000D9H   SFRSYM    DATA     BYTE      PWMPL
      000000E8H.0 SFRSYM    DATA     BIT       ADCHS0
      000000C7H   SFRSYM    DATA     BYTE      TA
      000000E8H.1 SFRSYM    DATA     BIT       ADCHS1
      000000E8H.2 SFRSYM    DATA     BIT       ADCHS2
      000000A8H.4 SFRSYM    DATA     BIT       ES
      000000E8H.3 SFRSYM    DATA     BIT       ADCHS3
      000000C1H   SFRSYM    DATA     BYTE      I2ADDR
      000000B8H.6 SFRSYM    DATA     BIT       PADC
      000000B8H   SFRSYM    DATA     BYTE      IP
      00000098H.0 SFRSYM    DATA     BIT       RI
      000000A8H.5 SFRSYM    DATA     BIT       EBOD
      000000C0H.3 SFRSYM    DATA     BIT       SI
      000000D0H.7 SFRSYM    DATA     BIT       CY
      000000E8H.6 SFRSYM    DATA     BIT       ADCS
      000000F8H.7 SFRSYM    DATA     BIT       FE_1
      00000098H.1 SFRSYM    DATA     BIT       TI
      000000D8H.6 SFRSYM    DATA     BIT       LOAD
      00000097H   SFRSYM    DATA     BYTE      CKEN
      000000B8H.4 SFRSYM    DATA     BIT       PS
      00000081H   SFRSYM    DATA     BYTE      SP
      000000D0H.2 SFRSYM    DATA     BIT       OV
      000000B7H   SFRSYM    DATA     BYTE      PWMINTC
      000000B8H.5 SFRSYM    DATA     BIT       PBOD
      000000B2H   SFRSYM    DATA     BYTE      P0SR
      000000F7H   SFRSYM    DATA     BYTE      EIPH
      000000B4H   SFRSYM    DATA     BYTE      P1SR
LX51 LINKER/LOCATER V4.66.100.0                                                       07/26/2023  22:33:38  PAGE 26


      000000ADH   SFRSYM    DATA     BYTE      P3SR
      000000F8H.0 SFRSYM    DATA     BIT       RI_1
      000000F8H.1 SFRSYM    DATA     BIT       TI_1
      000000CBH   SFRSYM    DATA     BYTE      RCMP2H
      000000CFH   SFRSYM    DATA     BYTE      ADCMPH
      00000080H.0 SFRSYM    DATA     BIT       P00
      00000080H.1 SFRSYM    DATA     BIT       P01
      00000090H.0 SFRSYM    DATA     BIT       P10
      000000FBH   SFRSYM    DATA     BYTE      PMEN
      00000099H   SFRSYM    DATA     BYTE      SBUF
      00000087H   SFRSYM    DATA     BYTE      PCON
      00000080H.2 SFRSYM    DATA     BIT       P02
      00000090H.1 SFRSYM    DATA     BIT       P11
      000000A0H.0 SFRSYM    DATA     BIT       P20
      000000CAH   SFRSYM    DATA     BYTE      RCMP2L
      00000080H.3 SFRSYM    DATA     BIT       P03
      00000090H.2 SFRSYM    DATA     BIT       P12
      000000B0H.0 SFRSYM    DATA     BIT       P30
      000000E3H   SFRSYM    DATA     BYTE      ADCDLY
      000000CEH   SFRSYM    DATA     BYTE      ADCMPL
      00000080H.4 SFRSYM    DATA     BIT       P04
      00000090H.3 SFRSYM    DATA     BIT       P13
      00000098H   SFRSYM    DATA     BYTE      SCON
      00000080H.5 SFRSYM    DATA     BIT       P05
      00000090H.4 SFRSYM    DATA     BIT       P14
      00000089H   SFRSYM    DATA     BYTE      TMOD
      00000088H   SFRSYM    DATA     BYTE      TCON
      00000080H.6 SFRSYM    DATA     BIT       P06
      00000090H.5 SFRSYM    DATA     BIT       P15
      00000080H.7 SFRSYM    DATA     BIT       P07
      00000090H.6 SFRSYM    DATA     BIT       P16
      00000090H.7 SFRSYM    DATA     BIT       P17
      00000080H.0 SFRSYM    DATA     BIT       MOSI
      00000080H.1 SFRSYM    DATA     BIT       MISO
      000000F3H   SFRSYM    DATA     BYTE      SPCR
      000000BDH   SFRSYM    DATA     BYTE      I2STAT
      000000F5H   SFRSYM    DATA     BYTE      SPDR
      000000D8H.5 SFRSYM    DATA     BIT       PWMF
      000000E5H   SFRSYM    DATA     BYTE      C0H
      000000E7H   SFRSYM    DATA     BYTE      C1H
      000000EEH   SFRSYM    DATA     BYTE      C2H
      0000009FH   SFRSYM    DATA     BYTE      CHPCON
      00000088H.1 SFRSYM    DATA     BIT       IE0
      00000088H.3 SFRSYM    DATA     BIT       IE1
      000000E4H   SFRSYM    DATA     BYTE      C0L
      00000091H   SFRSYM    DATA     BYTE      SFRS
      000000E6H   SFRSYM    DATA     BYTE      C1L
      000000C8H.0 SFRSYM    DATA     BIT       CM_RL2
      000000F0H   SFRSYM    DATA     BYTE      B
      000000EDH   SFRSYM    DATA     BYTE      C2L
      0000009AH   SFRSYM    DATA     BYTE      SBUF_1
      000000A5H   SFRSYM    DATA     BYTE      IAPUEN
      000000F8H   SFRSYM    DATA     BYTE      SCON_1
      000000E0H   SFRSYM    DATA     BYTE      ACC
      000000A8H.1 SFRSYM    DATA     BIT       ET0
      000000F4H   SFRSYM    DATA     BYTE      SPSR
      000000A4H   SFRSYM    DATA     BYTE      IAPTRG
      00000088H.5 SFRSYM    DATA     BIT       TF0
      000000A8H.3 SFRSYM    DATA     BIT       ET1
      00000088H.7 SFRSYM    DATA     BIT       TF1
      00000098H.2 SFRSYM    DATA     BIT       RB8
      000000C8H.7 SFRSYM    DATA     BIT       TF2
      000000D7H   SFRSYM    DATA     BYTE      FBD
      0000008CH   SFRSYM    DATA     BYTE      TH0
      00000088H.0 SFRSYM    DATA     BIT       IT0
LX51 LINKER/LOCATER V4.66.100.0                                                       07/26/2023  22:33:38  PAGE 27


      000000A8H.0 SFRSYM    DATA     BIT       EX0
      000000C6H   SFRSYM    DATA     BYTE      RH3
      0000008DH   SFRSYM    DATA     BYTE      TH1
      00000088H.2 SFRSYM    DATA     BIT       IT1
      00000098H.3 SFRSYM    DATA     BIT       TB8
      000000A8H.2 SFRSYM    DATA     BIT       EX1
      000000CDH   SFRSYM    DATA     BYTE      TH2
      000000D0H.0 SFRSYM    DATA     BIT       P
      000000FAH   SFRSYM    DATA     BYTE      PDTCNT
      00000098H.7 SFRSYM    DATA     BIT       SM0
      0000008AH   SFRSYM    DATA     BYTE      TL0
      00000098H.6 SFRSYM    DATA     BIT       SM1
      000000C5H   SFRSYM    DATA     BYTE      RL3
      0000008BH   SFRSYM    DATA     BYTE      TL1
      00000098H.5 SFRSYM    DATA     BIT       SM2
      000000C0H.6 SFRSYM    DATA     BIT       I2CEN
      000000CCH   SFRSYM    DATA     BYTE      TL2
      000000B1H   SFRSYM    DATA     BYTE      P0S
      0000009BH   SFRSYM    DATA     BYTE      EIE
      000000B8H.1 SFRSYM    DATA     BIT       PT0
      000000B3H   SFRSYM    DATA     BYTE      P1S
      000000B8H.3 SFRSYM    DATA     BIT       PT1
      000000D0H.3 SFRSYM    DATA     BIT       RS0
      000000BCH   SFRSYM    DATA     BYTE      I2DAT
      000000B5H   SFRSYM    DATA     BYTE      P2S
      00000088H.4 SFRSYM    DATA     BIT       TR0
      000000D0H.4 SFRSYM    DATA     BIT       RS1
      000000BEH   SFRSYM    DATA     BYTE      I2CLK
      000000ACH   SFRSYM    DATA     BYTE      P3S
      00000088H.6 SFRSYM    DATA     BIT       TR1
      000000D8H.4 SFRSYM    DATA     BIT       CLRPWM
      00000090H.4 SFRSYM    DATA     BIT       SDA
      000000B8H.0 SFRSYM    DATA     BIT       PX0
      000000C8H.2 SFRSYM    DATA     BIT       TR2
      000000FFH   SFRSYM    DATA     BYTE      EIPH1
      000000B8H.2 SFRSYM    DATA     BIT       PX1
      000000E8H   SFRSYM    DATA     BYTE      ADCCON0
      000000E1H   SFRSYM    DATA     BYTE      ADCCON1
      000000E2H   SFRSYM    DATA     BYTE      ADCCON2
      000000C0H   SFRSYM    DATA     BYTE      I2CON
      00000083H   SFRSYM    DATA     BYTE      DPH
      000000F8H.2 SFRSYM    DATA     BIT       RB8_1
      000000EFH   SFRSYM    DATA     BYTE      EIP
      000000F8H.3 SFRSYM    DATA     BIT       TB8_1
      000000ECH   SFRSYM    DATA     BYTE      PIF
      00000082H   SFRSYM    DATA     BYTE      DPL
      000000F8H.7 SFRSYM    DATA     BIT       SM0_1
      000000FCH   SFRSYM    DATA     BYTE      PMD
      000000B7H   SFRSYM    DATA     BYTE      IPH
      00000090H.3 SFRSYM    DATA     BIT       SCL
      000000F8H.6 SFRSYM    DATA     BIT       SM1_1
      000000BFH   SFRSYM    DATA     BYTE      I2TOC
      000000F8H.5 SFRSYM    DATA     BIT       SM2_1
      000000C3H   SFRSYM    DATA     BYTE      ADCRH
      000000A7H   SFRSYM    DATA     BYTE      IAPAH
      00000098H.4 SFRSYM    DATA     BIT       REN
      000000AEH   SFRSYM    DATA     BYTE      IAPFD
      00000092H   SFRSYM    DATA     BYTE      CAPCON0
      000000C0H.0 SFRSYM    DATA     BIT       I2CPX
      000000C9H   SFRSYM    DATA     BYTE      T2MOD
      000000C8H   SFRSYM    DATA     BYTE      T2CON
      000000C2H   SFRSYM    DATA     BYTE      ADCRL
      000000A3H   SFRSYM    DATA     BYTE      BODCON0
      00000093H   SFRSYM    DATA     BYTE      CAPCON1
      000000C0H.5 SFRSYM    DATA     BIT       STA
LX51 LINKER/LOCATER V4.66.100.0                                                       07/26/2023  22:33:38  PAGE 28


      000000C4H   SFRSYM    DATA     BYTE      T3CON
      000000ABH   SFRSYM    DATA     BYTE      BODCON1
      000000A6H   SFRSYM    DATA     BYTE      IAPAL
      00000094H   SFRSYM    DATA     BYTE      CAPCON2
      000000F1H   SFRSYM    DATA     BYTE      CAPCON3
      000000F2H   SFRSYM    DATA     BYTE      CAPCON4
      000000D8H.7 SFRSYM    DATA     BIT       PWMRUN
      000000F3H   SFRSYM    DATA     BYTE      SPCR2
      000000B9H   SFRSYM    DATA     BYTE      SADEN
      000000AFH   SFRSYM    DATA     BYTE      IAPCN
      000000D2H   SFRSYM    DATA     BYTE      PWM0H
      00000080H.7 SFRSYM    DATA     BIT       RXD
      000000D6H   SFRSYM    DATA     BYTE      PNP
      000000D3H   SFRSYM    DATA     BYTE      PWM1H
      000000D4H   SFRSYM    DATA     BYTE      PWM2H
      000000A9H   SFRSYM    DATA     BYTE      SADDR
      0000008EH   SFRSYM    DATA     BYTE      CKCON
      00000080H.4 SFRSYM    DATA     BIT       STADC
      00000080H.6 SFRSYM    DATA     BIT       TXD
      000000D5H   SFRSYM    DATA     BYTE      PWM3H
      000000DAH   SFRSYM    DATA     BYTE      PWM0L
      000000C4H   SFRSYM    DATA     BYTE      PWM4H
      000000DBH   SFRSYM    DATA     BYTE      PWM1L
      000000C5H   SFRSYM    DATA     BYTE      PWM5H
      000000A2H   SFRSYM    DATA     BYTE      AUXR1
      00000095H   SFRSYM    DATA     BYTE      CKDIV
      000000DCH   SFRSYM    DATA     BYTE      PWM2L
      000000DDH   SFRSYM    DATA     BYTE      PWM3L
      00000086H   SFRSYM    DATA     BYTE      RWK
      000000D0H.5 SFRSYM    DATA     BIT       F0
      000000CCH   SFRSYM    DATA     BYTE      PWM4L
      000000C0H.4 SFRSYM    DATA     BIT       STO
      000000E8H.4 SFRSYM    DATA     BIT       ETGSEL0
      000000F8H.4 SFRSYM    DATA     BIT       REN_1
      000000CDH   SFRSYM    DATA     BYTE      PWM5L
      000000E8H.5 SFRSYM    DATA     BIT       ETGSEL1
      000000E9H   SFRSYM    DATA     BYTE      PICON
      000000DEH   SFRSYM    DATA     BYTE      PIOCON0
      000000D0H   SFRSYM    DATA     BYTE      PSW
      000000EAH   SFRSYM    DATA     BYTE      PINEN
      000000C6H   SFRSYM    DATA     BYTE      PIOCON1
      000000F9H   SFRSYM    DATA     BYTE      PDTEN
      000000AAH   SFRSYM    DATA     BYTE      WDCON
      000000EBH   SFRSYM    DATA     BYTE      PIPEN
      000000BAH   SFRSYM    DATA     BYTE      SADEN_1

      01000D0EH   BLOCK     CODE     ---       LVL=0
      01000D0EH   LINE      CODE     ---       #21
      01000D0EH   LINE      CODE     ---       #22
      01000D0EH   LINE      CODE     ---       #23
      01000D27H   LINE      CODE     ---       #24
      01000D3FH   LINE      CODE     ---       #27
      01000D42H   LINE      CODE     ---       #30
      01000D44H   LINE      CODE     ---       #31
      ---         BLOCKEND  ---      ---       LVL=0

      01000DF4H   BLOCK     CODE     ---       LVL=0
      01000DF4H   LINE      CODE     ---       #33
      01000DF4H   LINE      CODE     ---       #34
      01000DF4H   LINE      CODE     ---       #35
      01000DFDH   LINE      CODE     ---       #36
      01000DFDH   LINE      CODE     ---       #37
      01000DFFH   LINE      CODE     ---       #38
      01000E01H   LINE      CODE     ---       #39
      01000E03H   LINE      CODE     ---       #40
LX51 LINKER/LOCATER V4.66.100.0                                                       07/26/2023  22:33:38  PAGE 29


      01000E06H   LINE      CODE     ---       #41
      01000E06H   LINE      CODE     ---       #42
      01000E08H   LINE      CODE     ---       #43
      01000E0AH   LINE      CODE     ---       #44
      01000E0AH   LINE      CODE     ---       #45
      01000E0AH   LINE      CODE     ---       #46
      ---         BLOCKEND  ---      ---       LVL=0

      010009AFH   BLOCK     CODE     ---       LVL=0
      00000007H   SYMBOL    DATA     BYTE      reg
      00000005H   SYMBOL    DATA     BYTE      u8low
      00000003H   SYMBOL    DATA     BYTE      u8high
      010009AFH   BLOCK     CODE     NEAR LAB  LVL=1
      01000A1CH   SYMBOL    CODE     ---       Write_Error_Stop
      ---         BLOCKEND  ---      ---       LVL=1
      010009AFH   LINE      CODE     ---       #48
      010009AFH   LINE      CODE     ---       #49
      010009AFH   LINE      CODE     ---       #51
      010009B1H   LINE      CODE     ---       #52
      010009B3H   LINE      CODE     ---       #53
      010009B6H   LINE      CODE     ---       #55
      010009BCH   LINE      CODE     ---       #56
      010009BCH   LINE      CODE     ---       #57
      010009BEH   LINE      CODE     ---       #58
      010009C0H   LINE      CODE     ---       #59
      010009C0H   LINE      CODE     ---       #62
      010009C2H   LINE      CODE     ---       #63
      010009C5H   LINE      CODE     ---       #64
      010009C7H   LINE      CODE     ---       #65
      010009CAH   LINE      CODE     ---       #67
      010009D0H   LINE      CODE     ---       #68
      010009D0H   LINE      CODE     ---       #69
      010009D2H   LINE      CODE     ---       #70
      010009D4H   LINE      CODE     ---       #71
      010009D4H   LINE      CODE     ---       #74
      010009D6H   LINE      CODE     ---       #75
      010009D8H   LINE      CODE     ---       #76
      010009DBH   LINE      CODE     ---       #78
      010009E1H   LINE      CODE     ---       #79
      010009E1H   LINE      CODE     ---       #80
      010009E3H   LINE      CODE     ---       #81
      010009E5H   LINE      CODE     ---       #82
      010009E5H   LINE      CODE     ---       #85
      010009E9H   LINE      CODE     ---       #86
      010009EBH   LINE      CODE     ---       #87
      010009EEH   LINE      CODE     ---       #89
      010009F4H   LINE      CODE     ---       #90
      010009F4H   LINE      CODE     ---       #91
      010009F6H   LINE      CODE     ---       #92
      010009F8H   LINE      CODE     ---       #93
      010009F8H   LINE      CODE     ---       #96
      010009FCH   LINE      CODE     ---       #97
      010009FEH   LINE      CODE     ---       #98
      01000A01H   LINE      CODE     ---       #100
      01000A07H   LINE      CODE     ---       #101
      01000A07H   LINE      CODE     ---       #102
      01000A09H   LINE      CODE     ---       #103
      01000A0BH   LINE      CODE     ---       #104
      01000A0BH   LINE      CODE     ---       #106
      01000A0DH   LINE      CODE     ---       #107
      01000A0FH   LINE      CODE     ---       #108
      01000A12H   LINE      CODE     ---       #109
      01000A12H   LINE      CODE     ---       #110
      01000A15H   LINE      CODE     ---       #111
      01000A18H   LINE      CODE     ---       #112
LX51 LINKER/LOCATER V4.66.100.0                                                       07/26/2023  22:33:38  PAGE 30


      01000A1AH   LINE      CODE     ---       #113
      01000A1CH   LINE      CODE     ---       #115
      01000A1CH   LINE      CODE     ---       #116
      01000A1FH   LINE      CODE     ---       #117
      01000A1FH   LINE      CODE     ---       #118
      01000A22H   LINE      CODE     ---       #119
      01000A24H   LINE      CODE     ---       #120
      01000A27H   LINE      CODE     ---       #121
      01000A27H   LINE      CODE     ---       #122
      01000A29H   LINE      CODE     ---       #123
      ---         BLOCKEND  ---      ---       LVL=0

      01000663H   BLOCK     CODE     ---       LVL=0
      00000007H   SYMBOL    DATA     BYTE      command
      02000033H   SYMBOL    XDATA    ---       u8DAT
      0100066EH   BLOCK     CODE     NEAR LAB  LVL=1
      00000007H   SYMBOL    DATA     BYTE      u8Count
      0100071AH   SYMBOL    CODE     ---       Read_Error_Stop
      ---         BLOCKEND  ---      ---       LVL=1
      01000663H   LINE      CODE     ---       #126
      0100066EH   LINE      CODE     ---       #127
      0100066EH   LINE      CODE     ---       #130
      01000670H   LINE      CODE     ---       #131
      01000672H   LINE      CODE     ---       #132
      01000675H   LINE      CODE     ---       #134
      0100067BH   LINE      CODE     ---       #135
      0100067BH   LINE      CODE     ---       #136
      0100067DH   LINE      CODE     ---       #137
      01000680H   LINE      CODE     ---       #138
      01000680H   LINE      CODE     ---       #141
      01000683H   LINE      CODE     ---       #142
      01000685H   LINE      CODE     ---       #143
      01000687H   LINE      CODE     ---       #144
      0100068AH   LINE      CODE     ---       #145
      01000690H   LINE      CODE     ---       #146
      01000690H   LINE      CODE     ---       #147
      01000692H   LINE      CODE     ---       #148
      01000695H   LINE      CODE     ---       #149
      01000695H   LINE      CODE     ---       #152
      01000697H   LINE      CODE     ---       #153
      01000699H   LINE      CODE     ---       #154
      0100069CH   LINE      CODE     ---       #156
      010006A2H   LINE      CODE     ---       #157
      010006A2H   LINE      CODE     ---       #158
      010006A4H   LINE      CODE     ---       #159
      010006A6H   LINE      CODE     ---       #160
      010006A6H   LINE      CODE     ---       #162
      010006A8H   LINE      CODE     ---       #163
      010006AAH   LINE      CODE     ---       #164
      010006ADH   LINE      CODE     ---       #166
      010006B3H   LINE      CODE     ---       #167
      010006B3H   LINE      CODE     ---       #168
      010006B5H   LINE      CODE     ---       #169
      010006B7H   LINE      CODE     ---       #170
      010006B7H   LINE      CODE     ---       #173
      010006B9H   LINE      CODE     ---       #174
      010006BCH   LINE      CODE     ---       #175
      010006BEH   LINE      CODE     ---       #176
      010006C1H   LINE      CODE     ---       #178
      010006C7H   LINE      CODE     ---       #179
      010006C7H   LINE      CODE     ---       #180
      010006C9H   LINE      CODE     ---       #181
      010006CBH   LINE      CODE     ---       #182
      010006CBH   LINE      CODE     ---       #185
      010006CDH   LINE      CODE     ---       #186
LX51 LINKER/LOCATER V4.66.100.0                                                       07/26/2023  22:33:38  PAGE 31


      010006CDH   LINE      CODE     ---       #187
      010006CFH   LINE      CODE     ---       #188
      010006D1H   LINE      CODE     ---       #189
      010006D4H   LINE      CODE     ---       #191
      010006DAH   LINE      CODE     ---       #192
      010006DAH   LINE      CODE     ---       #193
      010006DCH   LINE      CODE     ---       #194
      010006DEH   LINE      CODE     ---       #195
      010006DEH   LINE      CODE     ---       #196
      010006F3H   LINE      CODE     ---       #197
      010006F8H   LINE      CODE     ---       #199
      010006FAH   LINE      CODE     ---       #200
      010006FCH   LINE      CODE     ---       #201
      010006FFH   LINE      CODE     ---       #203
      01000705H   LINE      CODE     ---       #204
      01000705H   LINE      CODE     ---       #205
      01000707H   LINE      CODE     ---       #206
      01000709H   LINE      CODE     ---       #207
      01000709H   LINE      CODE     ---       #210
      0100070BH   LINE      CODE     ---       #211
      0100070DH   LINE      CODE     ---       #212
      01000710H   LINE      CODE     ---       #213
      01000710H   LINE      CODE     ---       #214
      01000713H   LINE      CODE     ---       #215
      01000716H   LINE      CODE     ---       #216
      01000718H   LINE      CODE     ---       #217
      0100071AH   LINE      CODE     ---       #219
      0100071AH   LINE      CODE     ---       #220
      0100071DH   LINE      CODE     ---       #221
      0100071DH   LINE      CODE     ---       #222
      01000720H   LINE      CODE     ---       #223
      01000722H   LINE      CODE     ---       #224
      01000725H   LINE      CODE     ---       #225
      01000725H   LINE      CODE     ---       #226
      01000727H   LINE      CODE     ---       #227
      ---         BLOCKEND  ---      ---       LVL=0

      01000BD3H   BLOCK     CODE     ---       LVL=0
      00000007H   SYMBOL    DATA     BYTE      tmpreg
      0200002DH   SYMBOL    XDATA    ---       rdata
      01000BDEH   BLOCK     CODE     NEAR LAB  LVL=1
      02000030H   SYMBOL    XDATA    ---       u8data
      02000032H   SYMBOL    XDATA    BYTE      res
      ---         BLOCKEND  ---      ---       LVL=1
      01000BD3H   LINE      CODE     ---       #230
      01000BDEH   LINE      CODE     ---       #231
      01000BDEH   LINE      CODE     ---       #234
      01000BECH   LINE      CODE     ---       #235
      01000C02H   LINE      CODE     ---       #236
      01000C21H   LINE      CODE     ---       #237
      01000C26H   LINE      CODE     ---       #238
      ---         BLOCKEND  ---      ---       LVL=0

      01000E21H   BLOCK     CODE     ---       LVL=0
      00000007H   SYMBOL    DATA     BYTE      reg
      00000002H   SYMBOL    DATA     WORD      rdata
      01000E21H   LINE      CODE     ---       #240
      01000E25H   LINE      CODE     ---       #241
      01000E25H   LINE      CODE     ---       #242
      01000E2EH   LINE      CODE     ---       #243
      ---         BLOCKEND  ---      ---       LVL=0
      00000007H   SYMBOL    DATA     BYTE      i_vcsel

      01000C79H   BLOCK     CODE     ---       LVL=0
      01000C79H   LINE      CODE     ---       #270
LX51 LINKER/LOCATER V4.66.100.0                                                       07/26/2023  22:33:38  PAGE 32


      01000C79H   LINE      CODE     ---       #271
      01000C79H   LINE      CODE     ---       #273
      01000C81H   LINE      CODE     ---       #274
      01000C8AH   LINE      CODE     ---       #275
      01000C93H   LINE      CODE     ---       #276
      01000C9AH   LINE      CODE     ---       #277
      01000CA3H   LINE      CODE     ---       #278
      01000CABH   LINE      CODE     ---       #279
      01000CB3H   LINE      CODE     ---       #282
      01000CBBH   LINE      CODE     ---       #283
      01000CC2H   LINE      CODE     ---       #284
      01000CC9H   LINE      CODE     ---       #286
      ---         BLOCKEND  ---      ---       LVL=0

      01000E0BH   BLOCK     CODE     ---       LVL=0
      01000E0BH   LINE      CODE     ---       #287
      01000E0BH   LINE      CODE     ---       #288
      01000E0BH   LINE      CODE     ---       #289
      01000E14H   LINE      CODE     ---       #290
      01000E19H   LINE      CODE     ---       #291
      01000E20H   LINE      CODE     ---       #293
      ---         BLOCKEND  ---      ---       LVL=0

      ---         MODULE    ---      ---       COMMON
      00000020H.4 PUBLIC    BIT      BIT       BIT_TMP
      000000F6H   SFRSYM    DATA     BYTE      AINDIDS
      000000B1H   SFRSYM    DATA     BYTE      P0M1
      00000080H.2 SFRSYM    DATA     BIT       RXD_1
      000000B3H   SFRSYM    DATA     BYTE      P1M1
      000000B2H   SFRSYM    DATA     BYTE      P0M2
      00000080H   SFRSYM    DATA     BYTE      P0
      000000BBH   SFRSYM    DATA     BYTE      SADDR_1
      000000B4H   SFRSYM    DATA     BYTE      P1M2
      00000090H   SFRSYM    DATA     BYTE      P1
      00000090H.6 SFRSYM    DATA     BIT       TXD_1
      000000C0H.2 SFRSYM    DATA     BIT       AA
      000000ACH   SFRSYM    DATA     BYTE      P3M1
      000000A0H   SFRSYM    DATA     BYTE      P2
      000000B0H   SFRSYM    DATA     BYTE      P3
      000000ADH   SFRSYM    DATA     BYTE      P3M2
      000000D0H.6 SFRSYM    DATA     BIT       AC
      0000008FH   SFRSYM    DATA     BYTE      WKCON
      00000084H   SFRSYM    DATA     BYTE      RCTRIM0
      0000009CH   SFRSYM    DATA     BYTE      EIE1
      00000085H   SFRSYM    DATA     BYTE      RCTRIM1
      000000A8H.7 SFRSYM    DATA     BIT       EA
      000000D8H   SFRSYM    DATA     BYTE      PWMCON0
      000000DFH   SFRSYM    DATA     BYTE      PWMCON1
      00000098H.7 SFRSYM    DATA     BIT       FE
      000000A8H.6 SFRSYM    DATA     BIT       EADC
      000000D1H   SFRSYM    DATA     BYTE      PWMPH
      000000A8H   SFRSYM    DATA     BYTE      IE
      00000096H   SFRSYM    DATA     BYTE      CKSWT
      000000E8H.7 SFRSYM    DATA     BIT       ADCF
      000000FEH   SFRSYM    DATA     BYTE      EIP1
      000000D9H   SFRSYM    DATA     BYTE      PWMPL
      000000E8H.0 SFRSYM    DATA     BIT       ADCHS0
      000000C7H   SFRSYM    DATA     BYTE      TA
      000000E8H.1 SFRSYM    DATA     BIT       ADCHS1
      000000E8H.2 SFRSYM    DATA     BIT       ADCHS2
      000000A8H.4 SFRSYM    DATA     BIT       ES
      000000E8H.3 SFRSYM    DATA     BIT       ADCHS3
      000000C1H   SFRSYM    DATA     BYTE      I2ADDR
      000000B8H.6 SFRSYM    DATA     BIT       PADC
      000000B8H   SFRSYM    DATA     BYTE      IP
LX51 LINKER/LOCATER V4.66.100.0                                                       07/26/2023  22:33:38  PAGE 33


      00000098H.0 SFRSYM    DATA     BIT       RI
      000000A8H.5 SFRSYM    DATA     BIT       EBOD
      000000C0H.3 SFRSYM    DATA     BIT       SI
      000000D0H.7 SFRSYM    DATA     BIT       CY
      000000E8H.6 SFRSYM    DATA     BIT       ADCS
      000000F8H.7 SFRSYM    DATA     BIT       FE_1
      00000098H.1 SFRSYM    DATA     BIT       TI
      000000D8H.6 SFRSYM    DATA     BIT       LOAD
      00000097H   SFRSYM    DATA     BYTE      CKEN
      000000B8H.4 SFRSYM    DATA     BIT       PS
      00000081H   SFRSYM    DATA     BYTE      SP
      000000D0H.2 SFRSYM    DATA     BIT       OV
      000000B7H   SFRSYM    DATA     BYTE      PWMINTC
      000000B8H.5 SFRSYM    DATA     BIT       PBOD
      000000B2H   SFRSYM    DATA     BYTE      P0SR
      000000F7H   SFRSYM    DATA     BYTE      EIPH
      000000B4H   SFRSYM    DATA     BYTE      P1SR
      000000ADH   SFRSYM    DATA     BYTE      P3SR
      000000F8H.0 SFRSYM    DATA     BIT       RI_1
      000000F8H.1 SFRSYM    DATA     BIT       TI_1
      000000CBH   SFRSYM    DATA     BYTE      RCMP2H
      000000CFH   SFRSYM    DATA     BYTE      ADCMPH
      00000080H.0 SFRSYM    DATA     BIT       P00
      00000080H.1 SFRSYM    DATA     BIT       P01
      00000090H.0 SFRSYM    DATA     BIT       P10
      000000FBH   SFRSYM    DATA     BYTE      PMEN
      00000099H   SFRSYM    DATA     BYTE      SBUF
      00000087H   SFRSYM    DATA     BYTE      PCON
      00000080H.2 SFRSYM    DATA     BIT       P02
      00000090H.1 SFRSYM    DATA     BIT       P11
      000000A0H.0 SFRSYM    DATA     BIT       P20
      000000CAH   SFRSYM    DATA     BYTE      RCMP2L
      00000080H.3 SFRSYM    DATA     BIT       P03
      00000090H.2 SFRSYM    DATA     BIT       P12
      000000B0H.0 SFRSYM    DATA     BIT       P30
      000000E3H   SFRSYM    DATA     BYTE      ADCDLY
      000000CEH   SFRSYM    DATA     BYTE      ADCMPL
      00000080H.4 SFRSYM    DATA     BIT       P04
      00000090H.3 SFRSYM    DATA     BIT       P13
      00000098H   SFRSYM    DATA     BYTE      SCON
      00000080H.5 SFRSYM    DATA     BIT       P05
      00000090H.4 SFRSYM    DATA     BIT       P14
      00000089H   SFRSYM    DATA     BYTE      TMOD
      00000088H   SFRSYM    DATA     BYTE      TCON
      00000080H.6 SFRSYM    DATA     BIT       P06
      00000090H.5 SFRSYM    DATA     BIT       P15
      00000080H.7 SFRSYM    DATA     BIT       P07
      00000090H.6 SFRSYM    DATA     BIT       P16
      00000090H.7 SFRSYM    DATA     BIT       P17
      00000080H.0 SFRSYM    DATA     BIT       MOSI
      00000080H.1 SFRSYM    DATA     BIT       MISO
      000000F3H   SFRSYM    DATA     BYTE      SPCR
      000000BDH   SFRSYM    DATA     BYTE      I2STAT
      000000F5H   SFRSYM    DATA     BYTE      SPDR
      000000D8H.5 SFRSYM    DATA     BIT       PWMF
      000000E5H   SFRSYM    DATA     BYTE      C0H
      000000E7H   SFRSYM    DATA     BYTE      C1H
      000000EEH   SFRSYM    DATA     BYTE      C2H
      0000009FH   SFRSYM    DATA     BYTE      CHPCON
      00000088H.1 SFRSYM    DATA     BIT       IE0
      00000088H.3 SFRSYM    DATA     BIT       IE1
      000000E4H   SFRSYM    DATA     BYTE      C0L
      00000091H   SFRSYM    DATA     BYTE      SFRS
      000000E6H   SFRSYM    DATA     BYTE      C1L
      000000C8H.0 SFRSYM    DATA     BIT       CM_RL2
LX51 LINKER/LOCATER V4.66.100.0                                                       07/26/2023  22:33:38  PAGE 34


      000000F0H   SFRSYM    DATA     BYTE      B
      000000EDH   SFRSYM    DATA     BYTE      C2L
      0000009AH   SFRSYM    DATA     BYTE      SBUF_1
      000000A5H   SFRSYM    DATA     BYTE      IAPUEN
      000000F8H   SFRSYM    DATA     BYTE      SCON_1
      000000E0H   SFRSYM    DATA     BYTE      ACC
      000000A8H.1 SFRSYM    DATA     BIT       ET0
      000000F4H   SFRSYM    DATA     BYTE      SPSR
      000000A4H   SFRSYM    DATA     BYTE      IAPTRG
      00000088H.5 SFRSYM    DATA     BIT       TF0
      000000A8H.3 SFRSYM    DATA     BIT       ET1
      00000088H.7 SFRSYM    DATA     BIT       TF1
      00000098H.2 SFRSYM    DATA     BIT       RB8
      000000C8H.7 SFRSYM    DATA     BIT       TF2
      000000D7H   SFRSYM    DATA     BYTE      FBD
      0000008CH   SFRSYM    DATA     BYTE      TH0
      00000088H.0 SFRSYM    DATA     BIT       IT0
      000000A8H.0 SFRSYM    DATA     BIT       EX0
      000000C6H   SFRSYM    DATA     BYTE      RH3
      0000008DH   SFRSYM    DATA     BYTE      TH1
      00000088H.2 SFRSYM    DATA     BIT       IT1
      00000098H.3 SFRSYM    DATA     BIT       TB8
      000000A8H.2 SFRSYM    DATA     BIT       EX1
      000000CDH   SFRSYM    DATA     BYTE      TH2
      000000D0H.0 SFRSYM    DATA     BIT       P
      000000FAH   SFRSYM    DATA     BYTE      PDTCNT
      00000098H.7 SFRSYM    DATA     BIT       SM0
      0000008AH   SFRSYM    DATA     BYTE      TL0
      00000098H.6 SFRSYM    DATA     BIT       SM1
      000000C5H   SFRSYM    DATA     BYTE      RL3
      0000008BH   SFRSYM    DATA     BYTE      TL1
      00000098H.5 SFRSYM    DATA     BIT       SM2
      000000C0H.6 SFRSYM    DATA     BIT       I2CEN
      000000CCH   SFRSYM    DATA     BYTE      TL2
      000000B1H   SFRSYM    DATA     BYTE      P0S
      0000009BH   SFRSYM    DATA     BYTE      EIE
      000000B8H.1 SFRSYM    DATA     BIT       PT0
      000000B3H   SFRSYM    DATA     BYTE      P1S
      000000B8H.3 SFRSYM    DATA     BIT       PT1
      000000D0H.3 SFRSYM    DATA     BIT       RS0
      000000BCH   SFRSYM    DATA     BYTE      I2DAT
      000000B5H   SFRSYM    DATA     BYTE      P2S
      00000088H.4 SFRSYM    DATA     BIT       TR0
      000000D0H.4 SFRSYM    DATA     BIT       RS1
      000000BEH   SFRSYM    DATA     BYTE      I2CLK
      000000ACH   SFRSYM    DATA     BYTE      P3S
      00000088H.6 SFRSYM    DATA     BIT       TR1
      000000D8H.4 SFRSYM    DATA     BIT       CLRPWM
      00000090H.4 SFRSYM    DATA     BIT       SDA
      000000B8H.0 SFRSYM    DATA     BIT       PX0
      000000C8H.2 SFRSYM    DATA     BIT       TR2
      000000FFH   SFRSYM    DATA     BYTE      EIPH1
      000000B8H.2 SFRSYM    DATA     BIT       PX1
      000000E8H   SFRSYM    DATA     BYTE      ADCCON0
      000000E1H   SFRSYM    DATA     BYTE      ADCCON1
      000000E2H   SFRSYM    DATA     BYTE      ADCCON2
      000000C0H   SFRSYM    DATA     BYTE      I2CON
      00000083H   SFRSYM    DATA     BYTE      DPH
      000000F8H.2 SFRSYM    DATA     BIT       RB8_1
      000000EFH   SFRSYM    DATA     BYTE      EIP
      000000F8H.3 SFRSYM    DATA     BIT       TB8_1
      000000ECH   SFRSYM    DATA     BYTE      PIF
      00000082H   SFRSYM    DATA     BYTE      DPL
      000000F8H.7 SFRSYM    DATA     BIT       SM0_1
      000000FCH   SFRSYM    DATA     BYTE      PMD
LX51 LINKER/LOCATER V4.66.100.0                                                       07/26/2023  22:33:38  PAGE 35


      000000B7H   SFRSYM    DATA     BYTE      IPH
      00000090H.3 SFRSYM    DATA     BIT       SCL
      000000F8H.6 SFRSYM    DATA     BIT       SM1_1
      000000BFH   SFRSYM    DATA     BYTE      I2TOC
      000000F8H.5 SFRSYM    DATA     BIT       SM2_1
      000000C3H   SFRSYM    DATA     BYTE      ADCRH
      000000A7H   SFRSYM    DATA     BYTE      IAPAH
      00000098H.4 SFRSYM    DATA     BIT       REN
      000000AEH   SFRSYM    DATA     BYTE      IAPFD
      00000092H   SFRSYM    DATA     BYTE      CAPCON0
      000000C0H.0 SFRSYM    DATA     BIT       I2CPX
      000000C9H   SFRSYM    DATA     BYTE      T2MOD
      000000C8H   SFRSYM    DATA     BYTE      T2CON
      000000C2H   SFRSYM    DATA     BYTE      ADCRL
      000000A3H   SFRSYM    DATA     BYTE      BODCON0
      00000093H   SFRSYM    DATA     BYTE      CAPCON1
      000000C0H.5 SFRSYM    DATA     BIT       STA
      000000C4H   SFRSYM    DATA     BYTE      T3CON
      000000ABH   SFRSYM    DATA     BYTE      BODCON1
      000000A6H   SFRSYM    DATA     BYTE      IAPAL
      00000094H   SFRSYM    DATA     BYTE      CAPCON2
      000000F1H   SFRSYM    DATA     BYTE      CAPCON3
      000000F2H   SFRSYM    DATA     BYTE      CAPCON4
      000000D8H.7 SFRSYM    DATA     BIT       PWMRUN
      000000F3H   SFRSYM    DATA     BYTE      SPCR2
      000000B9H   SFRSYM    DATA     BYTE      SADEN
      000000AFH   SFRSYM    DATA     BYTE      IAPCN
      000000D2H   SFRSYM    DATA     BYTE      PWM0H
      00000080H.7 SFRSYM    DATA     BIT       RXD
      000000D6H   SFRSYM    DATA     BYTE      PNP
      000000D3H   SFRSYM    DATA     BYTE      PWM1H
      000000D4H   SFRSYM    DATA     BYTE      PWM2H
      000000A9H   SFRSYM    DATA     BYTE      SADDR
      0000008EH   SFRSYM    DATA     BYTE      CKCON
      00000080H.4 SFRSYM    DATA     BIT       STADC
      00000080H.6 SFRSYM    DATA     BIT       TXD
      000000D5H   SFRSYM    DATA     BYTE      PWM3H
      000000DAH   SFRSYM    DATA     BYTE      PWM0L
      000000C4H   SFRSYM    DATA     BYTE      PWM4H
      000000DBH   SFRSYM    DATA     BYTE      PWM1L
      000000C5H   SFRSYM    DATA     BYTE      PWM5H
      000000A2H   SFRSYM    DATA     BYTE      AUXR1
      00000095H   SFRSYM    DATA     BYTE      CKDIV
      000000DCH   SFRSYM    DATA     BYTE      PWM2L
      000000DDH   SFRSYM    DATA     BYTE      PWM3L
      00000086H   SFRSYM    DATA     BYTE      RWK
      000000D0H.5 SFRSYM    DATA     BIT       F0
      000000CCH   SFRSYM    DATA     BYTE      PWM4L
      000000C0H.4 SFRSYM    DATA     BIT       STO
      000000E8H.4 SFRSYM    DATA     BIT       ETGSEL0
      000000F8H.4 SFRSYM    DATA     BIT       REN_1
      000000CDH   SFRSYM    DATA     BYTE      PWM5L
      000000E8H.5 SFRSYM    DATA     BIT       ETGSEL1
      000000E9H   SFRSYM    DATA     BYTE      PICON
      000000DEH   SFRSYM    DATA     BYTE      PIOCON0
      000000D0H   SFRSYM    DATA     BYTE      PSW
      000000EAH   SFRSYM    DATA     BYTE      PINEN
      000000C6H   SFRSYM    DATA     BYTE      PIOCON1
      000000F9H   SFRSYM    DATA     BYTE      PDTEN
      000000AAH   SFRSYM    DATA     BYTE      WDCON
      000000EBH   SFRSYM    DATA     BYTE      PIPEN
      000000BAH   SFRSYM    DATA     BYTE      SADEN_1
      00000082H   SYMBOL    DATA     ---       u16_addr
      00000007H   SYMBOL    DATA     BYTE      rdata
      00000007H   SYMBOL    DATA     BYTE      u8Bootarea
LX51 LINKER/LOCATER V4.66.100.0                                                       07/26/2023  22:33:38  PAGE 36


      00000007H   SYMBOL    DATA     BYTE      boottemp

      ---         MODULE    ---      ---       DELAY
      000000F6H   SFRSYM    DATA     BYTE      AINDIDS
      000000B1H   SFRSYM    DATA     BYTE      P0M1
      00000080H.2 SFRSYM    DATA     BIT       RXD_1
      000000B3H   SFRSYM    DATA     BYTE      P1M1
      000000B2H   SFRSYM    DATA     BYTE      P0M2
      00000080H   SFRSYM    DATA     BYTE      P0
      000000BBH   SFRSYM    DATA     BYTE      SADDR_1
      000000B4H   SFRSYM    DATA     BYTE      P1M2
      00000090H   SFRSYM    DATA     BYTE      P1
      00000090H.6 SFRSYM    DATA     BIT       TXD_1
      000000C0H.2 SFRSYM    DATA     BIT       AA
      000000ACH   SFRSYM    DATA     BYTE      P3M1
      000000A0H   SFRSYM    DATA     BYTE      P2
      000000B0H   SFRSYM    DATA     BYTE      P3
      000000ADH   SFRSYM    DATA     BYTE      P3M2
      000000D0H.6 SFRSYM    DATA     BIT       AC
      0000008FH   SFRSYM    DATA     BYTE      WKCON
      00000084H   SFRSYM    DATA     BYTE      RCTRIM0
      0000009CH   SFRSYM    DATA     BYTE      EIE1
      00000085H   SFRSYM    DATA     BYTE      RCTRIM1
      000000A8H.7 SFRSYM    DATA     BIT       EA
      000000D8H   SFRSYM    DATA     BYTE      PWMCON0
      000000DFH   SFRSYM    DATA     BYTE      PWMCON1
      00000098H.7 SFRSYM    DATA     BIT       FE
      000000A8H.6 SFRSYM    DATA     BIT       EADC
      000000D1H   SFRSYM    DATA     BYTE      PWMPH
      000000A8H   SFRSYM    DATA     BYTE      IE
      00000096H   SFRSYM    DATA     BYTE      CKSWT
      000000E8H.7 SFRSYM    DATA     BIT       ADCF
      000000FEH   SFRSYM    DATA     BYTE      EIP1
      000000D9H   SFRSYM    DATA     BYTE      PWMPL
      000000E8H.0 SFRSYM    DATA     BIT       ADCHS0
      000000C7H   SFRSYM    DATA     BYTE      TA
      000000E8H.1 SFRSYM    DATA     BIT       ADCHS1
      000000E8H.2 SFRSYM    DATA     BIT       ADCHS2
      000000A8H.4 SFRSYM    DATA     BIT       ES
      000000E8H.3 SFRSYM    DATA     BIT       ADCHS3
      000000C1H   SFRSYM    DATA     BYTE      I2ADDR
      000000B8H.6 SFRSYM    DATA     BIT       PADC
      000000B8H   SFRSYM    DATA     BYTE      IP
      00000098H.0 SFRSYM    DATA     BIT       RI
      000000A8H.5 SFRSYM    DATA     BIT       EBOD
      000000C0H.3 SFRSYM    DATA     BIT       SI
      000000D0H.7 SFRSYM    DATA     BIT       CY
      000000E8H.6 SFRSYM    DATA     BIT       ADCS
      000000F8H.7 SFRSYM    DATA     BIT       FE_1
      00000098H.1 SFRSYM    DATA     BIT       TI
      000000D8H.6 SFRSYM    DATA     BIT       LOAD
      00000097H   SFRSYM    DATA     BYTE      CKEN
      000000B8H.4 SFRSYM    DATA     BIT       PS
      00000081H   SFRSYM    DATA     BYTE      SP
      000000D0H.2 SFRSYM    DATA     BIT       OV
      000000B7H   SFRSYM    DATA     BYTE      PWMINTC
      000000B8H.5 SFRSYM    DATA     BIT       PBOD
      000000B2H   SFRSYM    DATA     BYTE      P0SR
      000000F7H   SFRSYM    DATA     BYTE      EIPH
      000000B4H   SFRSYM    DATA     BYTE      P1SR
      000000ADH   SFRSYM    DATA     BYTE      P3SR
      000000F8H.0 SFRSYM    DATA     BIT       RI_1
      000000F8H.1 SFRSYM    DATA     BIT       TI_1
      000000CBH   SFRSYM    DATA     BYTE      RCMP2H
      000000CFH   SFRSYM    DATA     BYTE      ADCMPH
LX51 LINKER/LOCATER V4.66.100.0                                                       07/26/2023  22:33:38  PAGE 37


      00000080H.0 SFRSYM    DATA     BIT       P00
      00000080H.1 SFRSYM    DATA     BIT       P01
      00000090H.0 SFRSYM    DATA     BIT       P10
      000000FBH   SFRSYM    DATA     BYTE      PMEN
      00000099H   SFRSYM    DATA     BYTE      SBUF
      00000087H   SFRSYM    DATA     BYTE      PCON
      00000080H.2 SFRSYM    DATA     BIT       P02
      00000090H.1 SFRSYM    DATA     BIT       P11
      000000A0H.0 SFRSYM    DATA     BIT       P20
      000000CAH   SFRSYM    DATA     BYTE      RCMP2L
      00000080H.3 SFRSYM    DATA     BIT       P03
      00000090H.2 SFRSYM    DATA     BIT       P12
      000000B0H.0 SFRSYM    DATA     BIT       P30
      000000E3H   SFRSYM    DATA     BYTE      ADCDLY
      000000CEH   SFRSYM    DATA     BYTE      ADCMPL
      00000080H.4 SFRSYM    DATA     BIT       P04
      00000090H.3 SFRSYM    DATA     BIT       P13
      00000098H   SFRSYM    DATA     BYTE      SCON
      00000080H.5 SFRSYM    DATA     BIT       P05
      00000090H.4 SFRSYM    DATA     BIT       P14
      00000089H   SFRSYM    DATA     BYTE      TMOD
      00000088H   SFRSYM    DATA     BYTE      TCON
      00000080H.6 SFRSYM    DATA     BIT       P06
      00000090H.5 SFRSYM    DATA     BIT       P15
      00000080H.7 SFRSYM    DATA     BIT       P07
      00000090H.6 SFRSYM    DATA     BIT       P16
      00000090H.7 SFRSYM    DATA     BIT       P17
      00000080H.0 SFRSYM    DATA     BIT       MOSI
      00000080H.1 SFRSYM    DATA     BIT       MISO
      000000F3H   SFRSYM    DATA     BYTE      SPCR
      000000BDH   SFRSYM    DATA     BYTE      I2STAT
      000000F5H   SFRSYM    DATA     BYTE      SPDR
      000000D8H.5 SFRSYM    DATA     BIT       PWMF
      000000E5H   SFRSYM    DATA     BYTE      C0H
      000000E7H   SFRSYM    DATA     BYTE      C1H
      000000EEH   SFRSYM    DATA     BYTE      C2H
      0000009FH   SFRSYM    DATA     BYTE      CHPCON
      00000088H.1 SFRSYM    DATA     BIT       IE0
      00000088H.3 SFRSYM    DATA     BIT       IE1
      000000E4H   SFRSYM    DATA     BYTE      C0L
      00000091H   SFRSYM    DATA     BYTE      SFRS
      000000E6H   SFRSYM    DATA     BYTE      C1L
      000000C8H.0 SFRSYM    DATA     BIT       CM_RL2
      000000F0H   SFRSYM    DATA     BYTE      B
      000000EDH   SFRSYM    DATA     BYTE      C2L
      0000009AH   SFRSYM    DATA     BYTE      SBUF_1
      000000A5H   SFRSYM    DATA     BYTE      IAPUEN
      000000F8H   SFRSYM    DATA     BYTE      SCON_1
      000000E0H   SFRSYM    DATA     BYTE      ACC
      000000A8H.1 SFRSYM    DATA     BIT       ET0
      000000F4H   SFRSYM    DATA     BYTE      SPSR
      000000A4H   SFRSYM    DATA     BYTE      IAPTRG
      00000088H.5 SFRSYM    DATA     BIT       TF0
      000000A8H.3 SFRSYM    DATA     BIT       ET1
      00000088H.7 SFRSYM    DATA     BIT       TF1
      00000098H.2 SFRSYM    DATA     BIT       RB8
      000000C8H.7 SFRSYM    DATA     BIT       TF2
      000000D7H   SFRSYM    DATA     BYTE      FBD
      0000008CH   SFRSYM    DATA     BYTE      TH0
      00000088H.0 SFRSYM    DATA     BIT       IT0
      000000A8H.0 SFRSYM    DATA     BIT       EX0
      000000C6H   SFRSYM    DATA     BYTE      RH3
      0000008DH   SFRSYM    DATA     BYTE      TH1
      00000088H.2 SFRSYM    DATA     BIT       IT1
      00000098H.3 SFRSYM    DATA     BIT       TB8
LX51 LINKER/LOCATER V4.66.100.0                                                       07/26/2023  22:33:38  PAGE 38


      000000A8H.2 SFRSYM    DATA     BIT       EX1
      000000CDH   SFRSYM    DATA     BYTE      TH2
      000000D0H.0 SFRSYM    DATA     BIT       P
      000000FAH   SFRSYM    DATA     BYTE      PDTCNT
      00000098H.7 SFRSYM    DATA     BIT       SM0
      0000008AH   SFRSYM    DATA     BYTE      TL0
      00000098H.6 SFRSYM    DATA     BIT       SM1
      000000C5H   SFRSYM    DATA     BYTE      RL3
      0000008BH   SFRSYM    DATA     BYTE      TL1
      00000098H.5 SFRSYM    DATA     BIT       SM2
      000000C0H.6 SFRSYM    DATA     BIT       I2CEN
      000000CCH   SFRSYM    DATA     BYTE      TL2
      000000B1H   SFRSYM    DATA     BYTE      P0S
      0000009BH   SFRSYM    DATA     BYTE      EIE
      000000B8H.1 SFRSYM    DATA     BIT       PT0
      000000B3H   SFRSYM    DATA     BYTE      P1S
      000000B8H.3 SFRSYM    DATA     BIT       PT1
      000000D0H.3 SFRSYM    DATA     BIT       RS0
      000000BCH   SFRSYM    DATA     BYTE      I2DAT
      000000B5H   SFRSYM    DATA     BYTE      P2S
      00000088H.4 SFRSYM    DATA     BIT       TR0
      000000D0H.4 SFRSYM    DATA     BIT       RS1
      000000BEH   SFRSYM    DATA     BYTE      I2CLK
      000000ACH   SFRSYM    DATA     BYTE      P3S
      00000088H.6 SFRSYM    DATA     BIT       TR1
      000000D8H.4 SFRSYM    DATA     BIT       CLRPWM
      00000090H.4 SFRSYM    DATA     BIT       SDA
      000000B8H.0 SFRSYM    DATA     BIT       PX0
      000000C8H.2 SFRSYM    DATA     BIT       TR2
      000000FFH   SFRSYM    DATA     BYTE      EIPH1
      000000B8H.2 SFRSYM    DATA     BIT       PX1
      000000E8H   SFRSYM    DATA     BYTE      ADCCON0
      000000E1H   SFRSYM    DATA     BYTE      ADCCON1
      000000E2H   SFRSYM    DATA     BYTE      ADCCON2
      000000C0H   SFRSYM    DATA     BYTE      I2CON
      00000083H   SFRSYM    DATA     BYTE      DPH
      000000F8H.2 SFRSYM    DATA     BIT       RB8_1
      000000EFH   SFRSYM    DATA     BYTE      EIP
      000000F8H.3 SFRSYM    DATA     BIT       TB8_1
      000000ECH   SFRSYM    DATA     BYTE      PIF
      00000082H   SFRSYM    DATA     BYTE      DPL
      000000F8H.7 SFRSYM    DATA     BIT       SM0_1
      000000FCH   SFRSYM    DATA     BYTE      PMD
      000000B7H   SFRSYM    DATA     BYTE      IPH
      00000090H.3 SFRSYM    DATA     BIT       SCL
      000000F8H.6 SFRSYM    DATA     BIT       SM1_1
      000000BFH   SFRSYM    DATA     BYTE      I2TOC
      000000F8H.5 SFRSYM    DATA     BIT       SM2_1
      000000C3H   SFRSYM    DATA     BYTE      ADCRH
      000000A7H   SFRSYM    DATA     BYTE      IAPAH
      00000098H.4 SFRSYM    DATA     BIT       REN
      000000AEH   SFRSYM    DATA     BYTE      IAPFD
      00000092H   SFRSYM    DATA     BYTE      CAPCON0
      000000C0H.0 SFRSYM    DATA     BIT       I2CPX
      000000C9H   SFRSYM    DATA     BYTE      T2MOD
      000000C8H   SFRSYM    DATA     BYTE      T2CON
      000000C2H   SFRSYM    DATA     BYTE      ADCRL
      000000A3H   SFRSYM    DATA     BYTE      BODCON0
      00000093H   SFRSYM    DATA     BYTE      CAPCON1
      000000C0H.5 SFRSYM    DATA     BIT       STA
      000000C4H   SFRSYM    DATA     BYTE      T3CON
      000000ABH   SFRSYM    DATA     BYTE      BODCON1
      000000A6H   SFRSYM    DATA     BYTE      IAPAL
      00000094H   SFRSYM    DATA     BYTE      CAPCON2
      000000F1H   SFRSYM    DATA     BYTE      CAPCON3
LX51 LINKER/LOCATER V4.66.100.0                                                       07/26/2023  22:33:38  PAGE 39


      000000F2H   SFRSYM    DATA     BYTE      CAPCON4
      000000D8H.7 SFRSYM    DATA     BIT       PWMRUN
      000000F3H   SFRSYM    DATA     BYTE      SPCR2
      000000B9H   SFRSYM    DATA     BYTE      SADEN
      000000AFH   SFRSYM    DATA     BYTE      IAPCN
      000000D2H   SFRSYM    DATA     BYTE      PWM0H
      00000080H.7 SFRSYM    DATA     BIT       RXD
      000000D6H   SFRSYM    DATA     BYTE      PNP
      000000D3H   SFRSYM    DATA     BYTE      PWM1H
      000000D4H   SFRSYM    DATA     BYTE      PWM2H
      000000A9H   SFRSYM    DATA     BYTE      SADDR
      0000008EH   SFRSYM    DATA     BYTE      CKCON
      00000080H.4 SFRSYM    DATA     BIT       STADC
      00000080H.6 SFRSYM    DATA     BIT       TXD
      000000D5H   SFRSYM    DATA     BYTE      PWM3H
      000000DAH   SFRSYM    DATA     BYTE      PWM0L
      000000C4H   SFRSYM    DATA     BYTE      PWM4H
      000000DBH   SFRSYM    DATA     BYTE      PWM1L
      000000C5H   SFRSYM    DATA     BYTE      PWM5H
      000000A2H   SFRSYM    DATA     BYTE      AUXR1
      00000095H   SFRSYM    DATA     BYTE      CKDIV
      000000DCH   SFRSYM    DATA     BYTE      PWM2L
      000000DDH   SFRSYM    DATA     BYTE      PWM3L
      00000086H   SFRSYM    DATA     BYTE      RWK
      000000D0H.5 SFRSYM    DATA     BIT       F0
      000000CCH   SFRSYM    DATA     BYTE      PWM4L
      000000C0H.4 SFRSYM    DATA     BIT       STO
      000000E8H.4 SFRSYM    DATA     BIT       ETGSEL0
      000000F8H.4 SFRSYM    DATA     BIT       REN_1
      000000CDH   SFRSYM    DATA     BYTE      PWM5L
      000000E8H.5 SFRSYM    DATA     BIT       ETGSEL1
      000000E9H   SFRSYM    DATA     BYTE      PICON
      000000DEH   SFRSYM    DATA     BYTE      PIOCON0
      000000D0H   SFRSYM    DATA     BYTE      PSW
      000000EAH   SFRSYM    DATA     BYTE      PINEN
      000000C6H   SFRSYM    DATA     BYTE      PIOCON1
      000000F9H   SFRSYM    DATA     BYTE      PDTEN
      000000AAH   SFRSYM    DATA     BYTE      WDCON
      000000EBH   SFRSYM    DATA     BYTE      PIPEN
      000000BAH   SFRSYM    DATA     BYTE      SADEN_1
      00000007H   SYMBOL    DATA     BYTE      TH0TMP
      00000007H   SYMBOL    DATA     BYTE      TH1TMP
      00000007H   SYMBOL    DATA     BYTE      TH2TMP
      00000007H   SYMBOL    DATA     BYTE      TH3TMP
      00000007H   SYMBOL    DATA     BYTE      u8TM

      ---         MODULE    ---      ---       SYS
      0000000EH   PUBLIC    DATA     BYTE      TA_REG_TMP
      0000000DH   PUBLIC    DATA     BYTE      SFRS_TMP
      0000000CH   PUBLIC    DATA     BYTE      BYTE_TMP
      0100044EH   PUBLIC    CODE     ---       _MODIFY_HIRC
      000000F6H   SFRSYM    DATA     BYTE      AINDIDS
      000000B1H   SFRSYM    DATA     BYTE      P0M1
      00000080H.2 SFRSYM    DATA     BIT       RXD_1
      000000B3H   SFRSYM    DATA     BYTE      P1M1
      000000B2H   SFRSYM    DATA     BYTE      P0M2
      00000080H   SFRSYM    DATA     BYTE      P0
      000000BBH   SFRSYM    DATA     BYTE      SADDR_1
      000000B4H   SFRSYM    DATA     BYTE      P1M2
      00000090H   SFRSYM    DATA     BYTE      P1
      00000090H.6 SFRSYM    DATA     BIT       TXD_1
      000000C0H.2 SFRSYM    DATA     BIT       AA
      000000ACH   SFRSYM    DATA     BYTE      P3M1
      000000A0H   SFRSYM    DATA     BYTE      P2
      000000B0H   SFRSYM    DATA     BYTE      P3
LX51 LINKER/LOCATER V4.66.100.0                                                       07/26/2023  22:33:38  PAGE 40


      000000ADH   SFRSYM    DATA     BYTE      P3M2
      000000D0H.6 SFRSYM    DATA     BIT       AC
      0000008FH   SFRSYM    DATA     BYTE      WKCON
      00000084H   SFRSYM    DATA     BYTE      RCTRIM0
      0000009CH   SFRSYM    DATA     BYTE      EIE1
      00000085H   SFRSYM    DATA     BYTE      RCTRIM1
      000000A8H.7 SFRSYM    DATA     BIT       EA
      000000D8H   SFRSYM    DATA     BYTE      PWMCON0
      000000DFH   SFRSYM    DATA     BYTE      PWMCON1
      00000098H.7 SFRSYM    DATA     BIT       FE
      000000A8H.6 SFRSYM    DATA     BIT       EADC
      000000D1H   SFRSYM    DATA     BYTE      PWMPH
      000000A8H   SFRSYM    DATA     BYTE      IE
      00000096H   SFRSYM    DATA     BYTE      CKSWT
      000000E8H.7 SFRSYM    DATA     BIT       ADCF
      000000FEH   SFRSYM    DATA     BYTE      EIP1
      000000D9H   SFRSYM    DATA     BYTE      PWMPL
      000000E8H.0 SFRSYM    DATA     BIT       ADCHS0
      000000C7H   SFRSYM    DATA     BYTE      TA
      000000E8H.1 SFRSYM    DATA     BIT       ADCHS1
      000000E8H.2 SFRSYM    DATA     BIT       ADCHS2
      000000A8H.4 SFRSYM    DATA     BIT       ES
      000000E8H.3 SFRSYM    DATA     BIT       ADCHS3
      000000C1H   SFRSYM    DATA     BYTE      I2ADDR
      000000B8H.6 SFRSYM    DATA     BIT       PADC
      000000B8H   SFRSYM    DATA     BYTE      IP
      00000098H.0 SFRSYM    DATA     BIT       RI
      000000A8H.5 SFRSYM    DATA     BIT       EBOD
      000000C0H.3 SFRSYM    DATA     BIT       SI
      000000D0H.7 SFRSYM    DATA     BIT       CY
      000000E8H.6 SFRSYM    DATA     BIT       ADCS
      000000F8H.7 SFRSYM    DATA     BIT       FE_1
      00000098H.1 SFRSYM    DATA     BIT       TI
      000000D8H.6 SFRSYM    DATA     BIT       LOAD
      00000097H   SFRSYM    DATA     BYTE      CKEN
      000000B8H.4 SFRSYM    DATA     BIT       PS
      00000081H   SFRSYM    DATA     BYTE      SP
      000000D0H.2 SFRSYM    DATA     BIT       OV
      000000B7H   SFRSYM    DATA     BYTE      PWMINTC
      000000B8H.5 SFRSYM    DATA     BIT       PBOD
      000000B2H   SFRSYM    DATA     BYTE      P0SR
      000000F7H   SFRSYM    DATA     BYTE      EIPH
      000000B4H   SFRSYM    DATA     BYTE      P1SR
      000000ADH   SFRSYM    DATA     BYTE      P3SR
      000000F8H.0 SFRSYM    DATA     BIT       RI_1
      000000F8H.1 SFRSYM    DATA     BIT       TI_1
      000000CBH   SFRSYM    DATA     BYTE      RCMP2H
      000000CFH   SFRSYM    DATA     BYTE      ADCMPH
      00000080H.0 SFRSYM    DATA     BIT       P00
      00000080H.1 SFRSYM    DATA     BIT       P01
      00000090H.0 SFRSYM    DATA     BIT       P10
      000000FBH   SFRSYM    DATA     BYTE      PMEN
      00000099H   SFRSYM    DATA     BYTE      SBUF
      00000087H   SFRSYM    DATA     BYTE      PCON
      00000080H.2 SFRSYM    DATA     BIT       P02
      00000090H.1 SFRSYM    DATA     BIT       P11
      000000A0H.0 SFRSYM    DATA     BIT       P20
      000000CAH   SFRSYM    DATA     BYTE      RCMP2L
      00000080H.3 SFRSYM    DATA     BIT       P03
      00000090H.2 SFRSYM    DATA     BIT       P12
      000000B0H.0 SFRSYM    DATA     BIT       P30
      000000E3H   SFRSYM    DATA     BYTE      ADCDLY
      000000CEH   SFRSYM    DATA     BYTE      ADCMPL
      00000080H.4 SFRSYM    DATA     BIT       P04
      00000090H.3 SFRSYM    DATA     BIT       P13
LX51 LINKER/LOCATER V4.66.100.0                                                       07/26/2023  22:33:38  PAGE 41


      00000098H   SFRSYM    DATA     BYTE      SCON
      00000080H.5 SFRSYM    DATA     BIT       P05
      00000090H.4 SFRSYM    DATA     BIT       P14
      00000089H   SFRSYM    DATA     BYTE      TMOD
      00000088H   SFRSYM    DATA     BYTE      TCON
      00000080H.6 SFRSYM    DATA     BIT       P06
      00000090H.5 SFRSYM    DATA     BIT       P15
      00000080H.7 SFRSYM    DATA     BIT       P07
      00000090H.6 SFRSYM    DATA     BIT       P16
      00000090H.7 SFRSYM    DATA     BIT       P17
      00000080H.0 SFRSYM    DATA     BIT       MOSI
      00000080H.1 SFRSYM    DATA     BIT       MISO
      000000F3H   SFRSYM    DATA     BYTE      SPCR
      000000BDH   SFRSYM    DATA     BYTE      I2STAT
      000000F5H   SFRSYM    DATA     BYTE      SPDR
      000000D8H.5 SFRSYM    DATA     BIT       PWMF
      000000E5H   SFRSYM    DATA     BYTE      C0H
      000000E7H   SFRSYM    DATA     BYTE      C1H
      000000EEH   SFRSYM    DATA     BYTE      C2H
      0000009FH   SFRSYM    DATA     BYTE      CHPCON
      00000088H.1 SFRSYM    DATA     BIT       IE0
      00000088H.3 SFRSYM    DATA     BIT       IE1
      000000E4H   SFRSYM    DATA     BYTE      C0L
      00000091H   SFRSYM    DATA     BYTE      SFRS
      000000E6H   SFRSYM    DATA     BYTE      C1L
      000000C8H.0 SFRSYM    DATA     BIT       CM_RL2
      000000F0H   SFRSYM    DATA     BYTE      B
      000000EDH   SFRSYM    DATA     BYTE      C2L
      0000009AH   SFRSYM    DATA     BYTE      SBUF_1
      000000A5H   SFRSYM    DATA     BYTE      IAPUEN
      000000F8H   SFRSYM    DATA     BYTE      SCON_1
      000000E0H   SFRSYM    DATA     BYTE      ACC
      000000A8H.1 SFRSYM    DATA     BIT       ET0
      000000F4H   SFRSYM    DATA     BYTE      SPSR
      000000A4H   SFRSYM    DATA     BYTE      IAPTRG
      00000088H.5 SFRSYM    DATA     BIT       TF0
      000000A8H.3 SFRSYM    DATA     BIT       ET1
      00000088H.7 SFRSYM    DATA     BIT       TF1
      00000098H.2 SFRSYM    DATA     BIT       RB8
      000000C8H.7 SFRSYM    DATA     BIT       TF2
      000000D7H   SFRSYM    DATA     BYTE      FBD
      0000008CH   SFRSYM    DATA     BYTE      TH0
      00000088H.0 SFRSYM    DATA     BIT       IT0
      000000A8H.0 SFRSYM    DATA     BIT       EX0
      000000C6H   SFRSYM    DATA     BYTE      RH3
      0000008DH   SFRSYM    DATA     BYTE      TH1
      00000088H.2 SFRSYM    DATA     BIT       IT1
      00000098H.3 SFRSYM    DATA     BIT       TB8
      000000A8H.2 SFRSYM    DATA     BIT       EX1
      000000CDH   SFRSYM    DATA     BYTE      TH2
      000000D0H.0 SFRSYM    DATA     BIT       P
      000000FAH   SFRSYM    DATA     BYTE      PDTCNT
      00000098H.7 SFRSYM    DATA     BIT       SM0
      0000008AH   SFRSYM    DATA     BYTE      TL0
      00000098H.6 SFRSYM    DATA     BIT       SM1
      000000C5H   SFRSYM    DATA     BYTE      RL3
      0000008BH   SFRSYM    DATA     BYTE      TL1
      00000098H.5 SFRSYM    DATA     BIT       SM2
      000000C0H.6 SFRSYM    DATA     BIT       I2CEN
      000000CCH   SFRSYM    DATA     BYTE      TL2
      000000B1H   SFRSYM    DATA     BYTE      P0S
      0000009BH   SFRSYM    DATA     BYTE      EIE
      000000B8H.1 SFRSYM    DATA     BIT       PT0
      000000B3H   SFRSYM    DATA     BYTE      P1S
      000000B8H.3 SFRSYM    DATA     BIT       PT1
LX51 LINKER/LOCATER V4.66.100.0                                                       07/26/2023  22:33:38  PAGE 42


      000000D0H.3 SFRSYM    DATA     BIT       RS0
      000000BCH   SFRSYM    DATA     BYTE      I2DAT
      000000B5H   SFRSYM    DATA     BYTE      P2S
      00000088H.4 SFRSYM    DATA     BIT       TR0
      000000D0H.4 SFRSYM    DATA     BIT       RS1
      000000BEH   SFRSYM    DATA     BYTE      I2CLK
      000000ACH   SFRSYM    DATA     BYTE      P3S
      00000088H.6 SFRSYM    DATA     BIT       TR1
      000000D8H.4 SFRSYM    DATA     BIT       CLRPWM
      00000090H.4 SFRSYM    DATA     BIT       SDA
      000000B8H.0 SFRSYM    DATA     BIT       PX0
      000000C8H.2 SFRSYM    DATA     BIT       TR2
      000000FFH   SFRSYM    DATA     BYTE      EIPH1
      000000B8H.2 SFRSYM    DATA     BIT       PX1
      000000E8H   SFRSYM    DATA     BYTE      ADCCON0
      000000E1H   SFRSYM    DATA     BYTE      ADCCON1
      000000E2H   SFRSYM    DATA     BYTE      ADCCON2
      000000C0H   SFRSYM    DATA     BYTE      I2CON
      00000083H   SFRSYM    DATA     BYTE      DPH
      000000F8H.2 SFRSYM    DATA     BIT       RB8_1
      000000EFH   SFRSYM    DATA     BYTE      EIP
      000000F8H.3 SFRSYM    DATA     BIT       TB8_1
      000000ECH   SFRSYM    DATA     BYTE      PIF
      00000082H   SFRSYM    DATA     BYTE      DPL
      000000F8H.7 SFRSYM    DATA     BIT       SM0_1
      000000FCH   SFRSYM    DATA     BYTE      PMD
      000000B7H   SFRSYM    DATA     BYTE      IPH
      00000090H.3 SFRSYM    DATA     BIT       SCL
      000000F8H.6 SFRSYM    DATA     BIT       SM1_1
      000000BFH   SFRSYM    DATA     BYTE      I2TOC
      000000F8H.5 SFRSYM    DATA     BIT       SM2_1
      000000C3H   SFRSYM    DATA     BYTE      ADCRH
      000000A7H   SFRSYM    DATA     BYTE      IAPAH
      00000098H.4 SFRSYM    DATA     BIT       REN
      000000AEH   SFRSYM    DATA     BYTE      IAPFD
      00000092H   SFRSYM    DATA     BYTE      CAPCON0
      000000C0H.0 SFRSYM    DATA     BIT       I2CPX
      000000C9H   SFRSYM    DATA     BYTE      T2MOD
      000000C8H   SFRSYM    DATA     BYTE      T2CON
      000000C2H   SFRSYM    DATA     BYTE      ADCRL
      000000A3H   SFRSYM    DATA     BYTE      BODCON0
      00000093H   SFRSYM    DATA     BYTE      CAPCON1
      000000C0H.5 SFRSYM    DATA     BIT       STA
      000000C4H   SFRSYM    DATA     BYTE      T3CON
      000000ABH   SFRSYM    DATA     BYTE      BODCON1
      000000A6H   SFRSYM    DATA     BYTE      IAPAL
      00000094H   SFRSYM    DATA     BYTE      CAPCON2
      000000F1H   SFRSYM    DATA     BYTE      CAPCON3
      000000F2H   SFRSYM    DATA     BYTE      CAPCON4
      000000D8H.7 SFRSYM    DATA     BIT       PWMRUN
      000000F3H   SFRSYM    DATA     BYTE      SPCR2
      000000B9H   SFRSYM    DATA     BYTE      SADEN
      000000AFH   SFRSYM    DATA     BYTE      IAPCN
      000000D2H   SFRSYM    DATA     BYTE      PWM0H
      00000080H.7 SFRSYM    DATA     BIT       RXD
      000000D6H   SFRSYM    DATA     BYTE      PNP
      000000D3H   SFRSYM    DATA     BYTE      PWM1H
      000000D4H   SFRSYM    DATA     BYTE      PWM2H
      000000A9H   SFRSYM    DATA     BYTE      SADDR
      0000008EH   SFRSYM    DATA     BYTE      CKCON
      00000080H.4 SFRSYM    DATA     BIT       STADC
      00000080H.6 SFRSYM    DATA     BIT       TXD
      000000D5H   SFRSYM    DATA     BYTE      PWM3H
      000000DAH   SFRSYM    DATA     BYTE      PWM0L
      000000C4H   SFRSYM    DATA     BYTE      PWM4H
LX51 LINKER/LOCATER V4.66.100.0                                                       07/26/2023  22:33:38  PAGE 43


      000000DBH   SFRSYM    DATA     BYTE      PWM1L
      000000C5H   SFRSYM    DATA     BYTE      PWM5H
      000000A2H   SFRSYM    DATA     BYTE      AUXR1
      00000095H   SFRSYM    DATA     BYTE      CKDIV
      000000DCH   SFRSYM    DATA     BYTE      PWM2L
      000000DDH   SFRSYM    DATA     BYTE      PWM3L
      00000086H   SFRSYM    DATA     BYTE      RWK
      000000D0H.5 SFRSYM    DATA     BIT       F0
      000000CCH   SFRSYM    DATA     BYTE      PWM4L
      000000C0H.4 SFRSYM    DATA     BIT       STO
      000000E8H.4 SFRSYM    DATA     BIT       ETGSEL0
      000000F8H.4 SFRSYM    DATA     BIT       REN_1
      000000CDH   SFRSYM    DATA     BYTE      PWM5L
      000000E8H.5 SFRSYM    DATA     BIT       ETGSEL1
      000000E9H   SFRSYM    DATA     BYTE      PICON
      000000DEH   SFRSYM    DATA     BYTE      PIOCON0
      000000D0H   SFRSYM    DATA     BYTE      PSW
      000000EAH   SFRSYM    DATA     BYTE      PINEN
      000000C6H   SFRSYM    DATA     BYTE      PIOCON1
      000000F9H   SFRSYM    DATA     BYTE      PDTEN
      000000AAH   SFRSYM    DATA     BYTE      WDCON
      000000EBH   SFRSYM    DATA     BYTE      PIPEN
      000000BAH   SFRSYM    DATA     BYTE      SADEN_1

      0100044EH   BLOCK     CODE     ---       LVL=0
      00000007H   SYMBOL    DATA     BYTE      u8HIRCSEL
      0100044EH   BLOCK     CODE     NEAR LAB  LVL=1
      00000008H   SYMBOL    DATA     BYTE      hircmap0
      00000009H   SYMBOL    DATA     BYTE      hircmap1
      0000000AH   SYMBOL    DATA     BYTE      offset
      0000000BH   SYMBOL    DATA     BYTE      judge
      00000007H   SYMBOL    DATA     BYTE      trimvalue16bit
      ---         BLOCKEND  ---      ---       LVL=1
      0100044EH   LINE      CODE     ---       #21
      0100044EH   LINE      CODE     ---       #22
      0100044EH   LINE      CODE     ---       #26
      01000461H   LINE      CODE     ---       #27
      01000464H   LINE      CODE     ---       #28
      01000470H   LINE      CODE     ---       #29
      01000470H   LINE      CODE     ---       #30
      01000470H   LINE      CODE     ---       #31
      01000473H   LINE      CODE     ---       #32
      01000475H   LINE      CODE     ---       #33
      01000475H   LINE      CODE     ---       #34
      01000478H   LINE      CODE     ---       #35
      0100047AH   LINE      CODE     ---       #36
      0100047AH   LINE      CODE     ---       #37
      0100047DH   LINE      CODE     ---       #38
      0100047DH   LINE      CODE     ---       #39
      0100047DH   LINE      CODE     ---       #40
      01000480H   LINE      CODE     ---       #41
      01000483H   LINE      CODE     ---       #42
      01000496H   LINE      CODE     ---       #43
      01000499H   LINE      CODE     ---       #44
      0100049BH   LINE      CODE     ---       #45
      010004AEH   LINE      CODE     ---       #46
      010004B1H   LINE      CODE     ---       #48
      010004B9H   LINE      CODE     ---       #49
      010004B9H   LINE      CODE     ---       #50
      010004B9H   LINE      CODE     ---       #51
      010004C4H   LINE      CODE     ---       #52
      010004C8H   LINE      CODE     ---       #53
      010004CDH   LINE      CODE     ---       #54
      010004D1H   LINE      CODE     ---       #55
      010004D4H   LINE      CODE     ---       #56
LX51 LINKER/LOCATER V4.66.100.0                                                       07/26/2023  22:33:38  PAGE 44


      010004D7H   LINE      CODE     ---       #57
      010004DAH   LINE      CODE     ---       #58
      01000500H   LINE      CODE     ---       #60
      01000511H   LINE      CODE     ---       #61
      01000511H   LINE      CODE     ---       #62
      01000518H   LINE      CODE     ---       #63
      01000518H   LINE      CODE     ---       #64
      01000529H   LINE      CODE     ---       #65
      0100052DH   LINE      CODE     ---       #66
      0100052FH   LINE      CODE     ---       #68
      01000533H   LINE      CODE     ---       #69
      01000533H   LINE      CODE     ---       #70
      01000538H   LINE      CODE     ---       #71
      01000538H   LINE      CODE     ---       #73
      01000538H   LINE      CODE     ---       #74
      01000538H   LINE      CODE     ---       #76
      0100053BH   LINE      CODE     ---       #77
      0100053EH   LINE      CODE     ---       #78
      01000541H   LINE      CODE     ---       #79
      01000544H   LINE      CODE     ---       #80
      01000547H   LINE      CODE     ---       #81
      0100054AH   LINE      CODE     ---       #82
      0100055DH   LINE      CODE     ---       #83
      ---         BLOCKEND  ---      ---       LVL=0
      00000007H   SYMBOL    DATA     BYTE      u8FsysMode
      00000007H   SYMBOL    DATA     BYTE      u8FsysMode
      00000007H   SYMBOL    DATA     BYTE      u8FsysMode
      00000007H   SYMBOL    DATA     BYTE      u8FsysMode

      ---         MODULE    ---      ---       UART
      00000020H.2 PUBLIC    BIT      BIT       uart1_receive_flag
      0200003BH   PUBLIC    XDATA    BYTE      uart1_receive_data
      00000020H.1 PUBLIC    BIT      BIT       uart0_receive_flag
      0200003AH   PUBLIC    XDATA    BYTE      uart0_receive_data
      00000020H.0 PUBLIC    BIT      BIT       PRINTFG
      01000DA0H   PUBLIC    CODE     ---       SerialPort1_ISR
      01000D7AH   PUBLIC    CODE     ---       Serial_ISR
      000000F6H   SFRSYM    DATA     BYTE      AINDIDS
      000000B1H   SFRSYM    DATA     BYTE      P0M1
      00000080H.2 SFRSYM    DATA     BIT       RXD_1
      000000B3H   SFRSYM    DATA     BYTE      P1M1
      000000B2H   SFRSYM    DATA     BYTE      P0M2
      00000080H   SFRSYM    DATA     BYTE      P0
      000000BBH   SFRSYM    DATA     BYTE      SADDR_1
      000000B4H   SFRSYM    DATA     BYTE      P1M2
      00000090H   SFRSYM    DATA     BYTE      P1
      00000090H.6 SFRSYM    DATA     BIT       TXD_1
      000000C0H.2 SFRSYM    DATA     BIT       AA
      000000ACH   SFRSYM    DATA     BYTE      P3M1
      000000A0H   SFRSYM    DATA     BYTE      P2
      000000B0H   SFRSYM    DATA     BYTE      P3
      000000ADH   SFRSYM    DATA     BYTE      P3M2
      000000D0H.6 SFRSYM    DATA     BIT       AC
      0000008FH   SFRSYM    DATA     BYTE      WKCON
      00000084H   SFRSYM    DATA     BYTE      RCTRIM0
      0000009CH   SFRSYM    DATA     BYTE      EIE1
      00000085H   SFRSYM    DATA     BYTE      RCTRIM1
      000000A8H.7 SFRSYM    DATA     BIT       EA
      000000D8H   SFRSYM    DATA     BYTE      PWMCON0
      000000DFH   SFRSYM    DATA     BYTE      PWMCON1
      00000098H.7 SFRSYM    DATA     BIT       FE
      000000A8H.6 SFRSYM    DATA     BIT       EADC
      000000D1H   SFRSYM    DATA     BYTE      PWMPH
      000000A8H   SFRSYM    DATA     BYTE      IE
      00000096H   SFRSYM    DATA     BYTE      CKSWT
LX51 LINKER/LOCATER V4.66.100.0                                                       07/26/2023  22:33:38  PAGE 45


      000000E8H.7 SFRSYM    DATA     BIT       ADCF
      000000FEH   SFRSYM    DATA     BYTE      EIP1
      000000D9H   SFRSYM    DATA     BYTE      PWMPL
      000000E8H.0 SFRSYM    DATA     BIT       ADCHS0
      000000C7H   SFRSYM    DATA     BYTE      TA
      000000E8H.1 SFRSYM    DATA     BIT       ADCHS1
      000000E8H.2 SFRSYM    DATA     BIT       ADCHS2
      000000A8H.4 SFRSYM    DATA     BIT       ES
      000000E8H.3 SFRSYM    DATA     BIT       ADCHS3
      000000C1H   SFRSYM    DATA     BYTE      I2ADDR
      000000B8H.6 SFRSYM    DATA     BIT       PADC
      000000B8H   SFRSYM    DATA     BYTE      IP
      00000098H.0 SFRSYM    DATA     BIT       RI
      000000A8H.5 SFRSYM    DATA     BIT       EBOD
      000000C0H.3 SFRSYM    DATA     BIT       SI
      000000D0H.7 SFRSYM    DATA     BIT       CY
      000000E8H.6 SFRSYM    DATA     BIT       ADCS
      000000F8H.7 SFRSYM    DATA     BIT       FE_1
      00000098H.1 SFRSYM    DATA     BIT       TI
      000000D8H.6 SFRSYM    DATA     BIT       LOAD
      00000097H   SFRSYM    DATA     BYTE      CKEN
      000000B8H.4 SFRSYM    DATA     BIT       PS
      00000081H   SFRSYM    DATA     BYTE      SP
      000000D0H.2 SFRSYM    DATA     BIT       OV
      000000B7H   SFRSYM    DATA     BYTE      PWMINTC
      000000B8H.5 SFRSYM    DATA     BIT       PBOD
      000000B2H   SFRSYM    DATA     BYTE      P0SR
      000000F7H   SFRSYM    DATA     BYTE      EIPH
      000000B4H   SFRSYM    DATA     BYTE      P1SR
      000000ADH   SFRSYM    DATA     BYTE      P3SR
      000000F8H.0 SFRSYM    DATA     BIT       RI_1
      000000F8H.1 SFRSYM    DATA     BIT       TI_1
      000000CBH   SFRSYM    DATA     BYTE      RCMP2H
      000000CFH   SFRSYM    DATA     BYTE      ADCMPH
      00000080H.0 SFRSYM    DATA     BIT       P00
      00000080H.1 SFRSYM    DATA     BIT       P01
      00000090H.0 SFRSYM    DATA     BIT       P10
      000000FBH   SFRSYM    DATA     BYTE      PMEN
      00000099H   SFRSYM    DATA     BYTE      SBUF
      00000087H   SFRSYM    DATA     BYTE      PCON
      00000080H.2 SFRSYM    DATA     BIT       P02
      00000090H.1 SFRSYM    DATA     BIT       P11
      000000A0H.0 SFRSYM    DATA     BIT       P20
      000000CAH   SFRSYM    DATA     BYTE      RCMP2L
      00000080H.3 SFRSYM    DATA     BIT       P03
      00000090H.2 SFRSYM    DATA     BIT       P12
      000000B0H.0 SFRSYM    DATA     BIT       P30
      000000E3H   SFRSYM    DATA     BYTE      ADCDLY
      000000CEH   SFRSYM    DATA     BYTE      ADCMPL
      00000080H.4 SFRSYM    DATA     BIT       P04
      00000090H.3 SFRSYM    DATA     BIT       P13
      00000098H   SFRSYM    DATA     BYTE      SCON
      00000080H.5 SFRSYM    DATA     BIT       P05
      00000090H.4 SFRSYM    DATA     BIT       P14
      00000089H   SFRSYM    DATA     BYTE      TMOD
      00000088H   SFRSYM    DATA     BYTE      TCON
      00000080H.6 SFRSYM    DATA     BIT       P06
      00000090H.5 SFRSYM    DATA     BIT       P15
      00000080H.7 SFRSYM    DATA     BIT       P07
      00000090H.6 SFRSYM    DATA     BIT       P16
      00000090H.7 SFRSYM    DATA     BIT       P17
      00000080H.0 SFRSYM    DATA     BIT       MOSI
      00000080H.1 SFRSYM    DATA     BIT       MISO
      000000F3H   SFRSYM    DATA     BYTE      SPCR
      000000BDH   SFRSYM    DATA     BYTE      I2STAT
LX51 LINKER/LOCATER V4.66.100.0                                                       07/26/2023  22:33:38  PAGE 46


      000000F5H   SFRSYM    DATA     BYTE      SPDR
      000000D8H.5 SFRSYM    DATA     BIT       PWMF
      000000E5H   SFRSYM    DATA     BYTE      C0H
      000000E7H   SFRSYM    DATA     BYTE      C1H
      000000EEH   SFRSYM    DATA     BYTE      C2H
      0000009FH   SFRSYM    DATA     BYTE      CHPCON
      00000088H.1 SFRSYM    DATA     BIT       IE0
      00000088H.3 SFRSYM    DATA     BIT       IE1
      000000E4H   SFRSYM    DATA     BYTE      C0L
      00000091H   SFRSYM    DATA     BYTE      SFRS
      000000E6H   SFRSYM    DATA     BYTE      C1L
      000000C8H.0 SFRSYM    DATA     BIT       CM_RL2
      000000F0H   SFRSYM    DATA     BYTE      B
      000000EDH   SFRSYM    DATA     BYTE      C2L
      0000009AH   SFRSYM    DATA     BYTE      SBUF_1
      000000A5H   SFRSYM    DATA     BYTE      IAPUEN
      000000F8H   SFRSYM    DATA     BYTE      SCON_1
      000000E0H   SFRSYM    DATA     BYTE      ACC
      000000A8H.1 SFRSYM    DATA     BIT       ET0
      000000F4H   SFRSYM    DATA     BYTE      SPSR
      000000A4H   SFRSYM    DATA     BYTE      IAPTRG
      00000088H.5 SFRSYM    DATA     BIT       TF0
      000000A8H.3 SFRSYM    DATA     BIT       ET1
      00000088H.7 SFRSYM    DATA     BIT       TF1
      00000098H.2 SFRSYM    DATA     BIT       RB8
      000000C8H.7 SFRSYM    DATA     BIT       TF2
      000000D7H   SFRSYM    DATA     BYTE      FBD
      0000008CH   SFRSYM    DATA     BYTE      TH0
      00000088H.0 SFRSYM    DATA     BIT       IT0
      000000A8H.0 SFRSYM    DATA     BIT       EX0
      000000C6H   SFRSYM    DATA     BYTE      RH3
      0000008DH   SFRSYM    DATA     BYTE      TH1
      00000088H.2 SFRSYM    DATA     BIT       IT1
      00000098H.3 SFRSYM    DATA     BIT       TB8
      000000A8H.2 SFRSYM    DATA     BIT       EX1
      000000CDH   SFRSYM    DATA     BYTE      TH2
      000000D0H.0 SFRSYM    DATA     BIT       P
      000000FAH   SFRSYM    DATA     BYTE      PDTCNT
      00000098H.7 SFRSYM    DATA     BIT       SM0
      0000008AH   SFRSYM    DATA     BYTE      TL0
      00000098H.6 SFRSYM    DATA     BIT       SM1
      000000C5H   SFRSYM    DATA     BYTE      RL3
      0000008BH   SFRSYM    DATA     BYTE      TL1
      00000098H.5 SFRSYM    DATA     BIT       SM2
      000000C0H.6 SFRSYM    DATA     BIT       I2CEN
      000000CCH   SFRSYM    DATA     BYTE      TL2
      000000B1H   SFRSYM    DATA     BYTE      P0S
      0000009BH   SFRSYM    DATA     BYTE      EIE
      000000B8H.1 SFRSYM    DATA     BIT       PT0
      000000B3H   SFRSYM    DATA     BYTE      P1S
      000000B8H.3 SFRSYM    DATA     BIT       PT1
      000000D0H.3 SFRSYM    DATA     BIT       RS0
      000000BCH   SFRSYM    DATA     BYTE      I2DAT
      000000B5H   SFRSYM    DATA     BYTE      P2S
      00000088H.4 SFRSYM    DATA     BIT       TR0
      000000D0H.4 SFRSYM    DATA     BIT       RS1
      000000BEH   SFRSYM    DATA     BYTE      I2CLK
      000000ACH   SFRSYM    DATA     BYTE      P3S
      00000088H.6 SFRSYM    DATA     BIT       TR1
      000000D8H.4 SFRSYM    DATA     BIT       CLRPWM
      00000090H.4 SFRSYM    DATA     BIT       SDA
      000000B8H.0 SFRSYM    DATA     BIT       PX0
      000000C8H.2 SFRSYM    DATA     BIT       TR2
      000000FFH   SFRSYM    DATA     BYTE      EIPH1
      000000B8H.2 SFRSYM    DATA     BIT       PX1
LX51 LINKER/LOCATER V4.66.100.0                                                       07/26/2023  22:33:38  PAGE 47


      000000E8H   SFRSYM    DATA     BYTE      ADCCON0
      000000E1H   SFRSYM    DATA     BYTE      ADCCON1
      000000E2H   SFRSYM    DATA     BYTE      ADCCON2
      000000C0H   SFRSYM    DATA     BYTE      I2CON
      00000083H   SFRSYM    DATA     BYTE      DPH
      000000F8H.2 SFRSYM    DATA     BIT       RB8_1
      000000EFH   SFRSYM    DATA     BYTE      EIP
      000000F8H.3 SFRSYM    DATA     BIT       TB8_1
      000000ECH   SFRSYM    DATA     BYTE      PIF
      00000082H   SFRSYM    DATA     BYTE      DPL
      000000F8H.7 SFRSYM    DATA     BIT       SM0_1
      000000FCH   SFRSYM    DATA     BYTE      PMD
      000000B7H   SFRSYM    DATA     BYTE      IPH
      00000090H.3 SFRSYM    DATA     BIT       SCL
      000000F8H.6 SFRSYM    DATA     BIT       SM1_1
      000000BFH   SFRSYM    DATA     BYTE      I2TOC
      000000F8H.5 SFRSYM    DATA     BIT       SM2_1
      000000C3H   SFRSYM    DATA     BYTE      ADCRH
      000000A7H   SFRSYM    DATA     BYTE      IAPAH
      00000098H.4 SFRSYM    DATA     BIT       REN
      000000AEH   SFRSYM    DATA     BYTE      IAPFD
      00000092H   SFRSYM    DATA     BYTE      CAPCON0
      000000C0H.0 SFRSYM    DATA     BIT       I2CPX
      000000C9H   SFRSYM    DATA     BYTE      T2MOD
      000000C8H   SFRSYM    DATA     BYTE      T2CON
      000000C2H   SFRSYM    DATA     BYTE      ADCRL
      000000A3H   SFRSYM    DATA     BYTE      BODCON0
      00000093H   SFRSYM    DATA     BYTE      CAPCON1
      000000C0H.5 SFRSYM    DATA     BIT       STA
      000000C4H   SFRSYM    DATA     BYTE      T3CON
      000000ABH   SFRSYM    DATA     BYTE      BODCON1
      000000A6H   SFRSYM    DATA     BYTE      IAPAL
      00000094H   SFRSYM    DATA     BYTE      CAPCON2
      000000F1H   SFRSYM    DATA     BYTE      CAPCON3
      000000F2H   SFRSYM    DATA     BYTE      CAPCON4
      000000D8H.7 SFRSYM    DATA     BIT       PWMRUN
      000000F3H   SFRSYM    DATA     BYTE      SPCR2
      000000B9H   SFRSYM    DATA     BYTE      SADEN
      000000AFH   SFRSYM    DATA     BYTE      IAPCN
      000000D2H   SFRSYM    DATA     BYTE      PWM0H
      00000080H.7 SFRSYM    DATA     BIT       RXD
      000000D6H   SFRSYM    DATA     BYTE      PNP
      000000D3H   SFRSYM    DATA     BYTE      PWM1H
      000000D4H   SFRSYM    DATA     BYTE      PWM2H
      000000A9H   SFRSYM    DATA     BYTE      SADDR
      0000008EH   SFRSYM    DATA     BYTE      CKCON
      00000080H.4 SFRSYM    DATA     BIT       STADC
      00000080H.6 SFRSYM    DATA     BIT       TXD
      000000D5H   SFRSYM    DATA     BYTE      PWM3H
      000000DAH   SFRSYM    DATA     BYTE      PWM0L
      000000C4H   SFRSYM    DATA     BYTE      PWM4H
      000000DBH   SFRSYM    DATA     BYTE      PWM1L
      000000C5H   SFRSYM    DATA     BYTE      PWM5H
      000000A2H   SFRSYM    DATA     BYTE      AUXR1
      00000095H   SFRSYM    DATA     BYTE      CKDIV
      000000DCH   SFRSYM    DATA     BYTE      PWM2L
      000000DDH   SFRSYM    DATA     BYTE      PWM3L
      00000086H   SFRSYM    DATA     BYTE      RWK
      000000D0H.5 SFRSYM    DATA     BIT       F0
      000000CCH   SFRSYM    DATA     BYTE      PWM4L
      000000C0H.4 SFRSYM    DATA     BIT       STO
      000000E8H.4 SFRSYM    DATA     BIT       ETGSEL0
      000000F8H.4 SFRSYM    DATA     BIT       REN_1
      000000CDH   SFRSYM    DATA     BYTE      PWM5L
      000000E8H.5 SFRSYM    DATA     BIT       ETGSEL1
LX51 LINKER/LOCATER V4.66.100.0                                                       07/26/2023  22:33:38  PAGE 48


      000000E9H   SFRSYM    DATA     BYTE      PICON
      000000DEH   SFRSYM    DATA     BYTE      PIOCON0
      000000D0H   SFRSYM    DATA     BYTE      PSW
      000000EAH   SFRSYM    DATA     BYTE      PINEN
      000000C6H   SFRSYM    DATA     BYTE      PIOCON1
      000000F9H   SFRSYM    DATA     BYTE      PDTEN
      000000AAH   SFRSYM    DATA     BYTE      WDCON
      000000EBH   SFRSYM    DATA     BYTE      PIPEN
      000000BAH   SFRSYM    DATA     BYTE      SADEN_1

      01000D7AH   BLOCK     CODE     ---       LVL=0
      01000D7AH   LINE      CODE     ---       #14
      01000D80H   LINE      CODE     ---       #16
      01000D82H   LINE      CODE     ---       #18
      01000D85H   LINE      CODE     ---       #19
      01000D85H   LINE      CODE     ---       #20
      01000D87H   LINE      CODE     ---       #21
      01000D8DH   LINE      CODE     ---       #22
      01000D8FH   LINE      CODE     ---       #23
      01000D8FH   LINE      CODE     ---       #25
      01000D92H   LINE      CODE     ---       #26
      01000D92H   LINE      CODE     ---       #27
      01000D95H   LINE      CODE     ---       #28
      01000D95H   LINE      CODE     ---       #29
      01000D97H   LINE      CODE     ---       #30
      01000D97H   LINE      CODE     ---       #31
      01000D97H   LINE      CODE     ---       #33
      01000D99H   LINE      CODE     ---       #34
      ---         BLOCKEND  ---      ---       LVL=0

      01000DA0H   BLOCK     CODE     ---       LVL=0
      01000DA0H   LINE      CODE     ---       #38
      01000DA6H   LINE      CODE     ---       #40
      01000DA8H   LINE      CODE     ---       #42
      01000DABH   LINE      CODE     ---       #43
      01000DABH   LINE      CODE     ---       #44
      01000DB1H   LINE      CODE     ---       #45
      01000DB3H   LINE      CODE     ---       #46
      01000DB5H   LINE      CODE     ---       #47
      01000DB5H   LINE      CODE     ---       #49
      01000DB8H   LINE      CODE     ---       #50
      01000DB8H   LINE      CODE     ---       #51
      01000DBBH   LINE      CODE     ---       #52
      01000DBBH   LINE      CODE     ---       #53
      01000DBDH   LINE      CODE     ---       #54
      01000DBDH   LINE      CODE     ---       #55
      01000DBDH   LINE      CODE     ---       #57
      01000DBFH   LINE      CODE     ---       #58
      ---         BLOCKEND  ---      ---       LVL=0
      00000007H   SYMBOL    DATA     BYTE      UARTPort
      00000005H   SYMBOL    DATA     BYTE      c

      ---         MODULE    ---      ---       ?C_STARTUP
      01000000H   PUBLIC    CODE     ---       ?C_STARTUP
      000000E0H   SYMBOL    DATA     ---       ACC
      000000F0H   SYMBOL    DATA     ---       B
      00000083H   SYMBOL    DATA     ---       DPH
      00000082H   SYMBOL    DATA     ---       DPL
      00000000H   SYMBOL    NUMBER   ---       IBPSTACK
      00000100H   SYMBOL    NUMBER   ---       IBPSTACKTOP
      00000080H   SYMBOL    NUMBER   ---       IDATALEN
      01000918H   SYMBOL    CODE     ---       IDATALOOP
      00000000H   SYMBOL    NUMBER   ---       PBPSTACK
      00000000H   SYMBOL    NUMBER   ---       PBPSTACKTOP
      00000000H   SYMBOL    NUMBER   ---       PDATALEN
LX51 LINKER/LOCATER V4.66.100.0                                                       07/26/2023  22:33:38  PAGE 49


      00000000H   SYMBOL    NUMBER   ---       PDATASTART
      00000000H   SYMBOL    NUMBER   ---       PPAGE
      00000000H   SYMBOL    NUMBER   ---       PPAGEENABLE
      000000A0H   SYMBOL    DATA     ---       PPAGE_SFR
      00000081H   SYMBOL    DATA     ---       SP
      01000915H   SYMBOL    CODE     ---       STARTUP1
      00000000H   SYMBOL    NUMBER   ---       XBPSTACK
      00000000H   SYMBOL    NUMBER   ---       XBPSTACKTOP
      000003FFH   SYMBOL    NUMBER   ---       XDATALEN
      01000923H   SYMBOL    CODE     ---       XDATALOOP
      00000000H   SYMBOL    NUMBER   ---       XDATASTART
      01000000H   LINE      CODE     ---       #94
      01000915H   LINE      CODE     ---       #109
      01000917H   LINE      CODE     ---       #110
      01000918H   LINE      CODE     ---       #111
      01000919H   LINE      CODE     ---       #112
      0100091BH   LINE      CODE     ---       #116
      0100091EH   LINE      CODE     ---       #117
      01000920H   LINE      CODE     ---       #119
      01000922H   LINE      CODE     ---       #123
      01000923H   LINE      CODE     ---       #124
      01000924H   LINE      CODE     ---       #125
      01000925H   LINE      CODE     ---       #126
      01000927H   LINE      CODE     ---       #127
      01000929H   LINE      CODE     ---       #161
      0100092CH   LINE      CODE     ---       #165

      ---         MODULE    ---      ---       ?C_INIT
      0100096AH   PUBLIC    CODE     ---       ?C_START

      ---         MODULE    ---      ---       ?C?CLDOPTR
      01000086H   PUBLIC    CODE     ---       ?C?CLDOPTR

      ---         MODULE    ---      ---       ?C?CSTOPTR
      010000B3H   PUBLIC    CODE     ---       ?C?CSTOPTR

      ---         MODULE    ---      ---       ?C?UIDIV
      010000D5H   PUBLIC    CODE     ---       ?C?UIDIV

      ---         MODULE    ---      ---       ?C?ILDPTR
      0100012AH   PUBLIC    CODE     ---       ?C?ILDPTR

      ---         MODULE    ---      ---       ?C?ISTPTR
      01000155H   PUBLIC    CODE     ---       ?C?ISTPTR

      ---         MODULE    ---      ---       ?C?LMUL
      01000174H   PUBLIC    CODE     ---       ?C?LMUL

      ---         MODULE    ---      ---       ?C?ULDIV
      010001FFH   PUBLIC    CODE     ---       ?C?ULDIV

      ---         MODULE    ---      ---       ?C?ULCMP
      01000291H   PUBLIC    CODE     ---       ?C?ULCMP

      ---         MODULE    ---      ---       ?C?ULSHR
      010002A2H   PUBLIC    CODE     ---       ?C?ULSHR

      ---         MODULE    ---      ---       ?C?LSTXDATA
      010002B5H   PUBLIC    CODE     ---       ?C?LSTXDATA

      ---         MODULE    ---      ---       ?C?LSTKXDATA
      010002C1H   PUBLIC    CODE     ---       ?C?LSTKXDATA

      ---         MODULE    ---      ---       ?C?ICASE
      010002F2H   PUBLIC    CODE     ---       ?C?ICASE
LX51 LINKER/LOCATER V4.66.100.0                                                       07/26/2023  22:33:38  PAGE 50



Program Size: data=16.5 xdata=60 const=0 code=3667
LX51 RUN COMPLETE.  0 WARNING(S),  0 ERROR(S)
